ccopy_reg
_reconstructor
p0
(cneat.genome
FFGenome
p1
c__builtin__
object
p2
Ntp3
Rp4
(dp5
S'species_id'
p6
I1
sS'conn_genes'
p7
(dp8
(I22
I57
tp9
g0
(cneat.genes
ConnectionGene
p10
g2
Ntp11
Rp12
(dp13
S'weight'
p14
F1.335732837850134
sS'enabled'
p15
I00
sS'out_node_id'
p16
I57
sS'in_node_id'
p17
I22
sbs(I13
I55
tp18
g0
(g10
g2
Ntp19
Rp20
(dp21
g14
F2.3333577358547237
sg15
I00
sg16
I55
sg17
I13
sbs(I29
I63
tp22
g0
(g10
g2
Ntp23
Rp24
(dp25
g14
F2.982820169444706
sg15
I00
sg16
I63
sg17
I29
sbs(I20
I65
tp26
g0
(g10
g2
Ntp27
Rp28
(dp29
g14
F-5.0
sg15
I01
sg16
I65
sg17
I20
sbs(I23
I41
tp30
g0
(g10
g2
Ntp31
Rp32
(dp33
g14
F3.6247087275164747
sg15
I00
sg16
I41
sg17
I23
sbs(I10
I46
tp34
g0
(g10
g2
Ntp35
Rp36
(dp37
g14
F1.7014299857952784
sg15
I00
sg16
I46
sg17
I10
sbs(I24
I62
tp38
g0
(g10
g2
Ntp39
Rp40
(dp41
g14
F-3.8074634668075182
sg15
I00
sg16
I62
sg17
I24
sbs(I63
I42
tp42
g0
(g10
g2
Ntp43
Rp44
(dp45
g14
F-0.3383997662295369
sg15
I00
sg16
I42
sg17
I63
sbs(I27
I55
tp46
g0
(g10
g2
Ntp47
Rp48
(dp49
g14
F0.6658024343495073
sg15
I01
sg16
I55
sg17
I27
sbs(I21
I53
tp50
g0
(g10
g2
Ntp51
Rp52
(dp53
g14
F-1.4009010726478976
sg15
I01
sg16
I53
sg17
I21
sbs(I53
I59
tp54
g0
(g10
g2
Ntp55
Rp56
(dp57
g14
F-2.0105395665747503
sg15
I01
sg16
I59
sg17
I53
sbs(I4
I46
tp58
g0
(g10
g2
Ntp59
Rp60
(dp61
g14
F-0.8334816171663803
sg15
I00
sg16
I46
sg17
I4
sbs(I9
I36
tp62
g0
(g10
g2
Ntp63
Rp64
(dp65
g14
F-3.12387854624025
sg15
I00
sg16
I36
sg17
I9
sbs(I30
I57
tp66
g0
(g10
g2
Ntp67
Rp68
(dp69
g14
F4.375125116961953
sg15
I00
sg16
I57
sg17
I30
sbs(I25
I60
tp70
g0
(g10
g2
Ntp71
Rp72
(dp73
g14
F-2.5594796166831384
sg15
I01
sg16
I60
sg17
I25
sbs(I7
I41
tp74
g0
(g10
g2
Ntp75
Rp76
(dp77
g14
F1.07887438736964
sg15
I01
sg16
I41
sg17
I7
sbs(I31
I60
tp78
g0
(g10
g2
Ntp79
Rp80
(dp81
g14
F3.9499819208568523
sg15
I00
sg16
I60
sg17
I31
sbs(I20
I58
tp82
g0
(g10
g2
Ntp83
Rp84
(dp85
g14
F1.8872347929493198
sg15
I00
sg16
I58
sg17
I20
sbs(I19
I50
tp86
g0
(g10
g2
Ntp87
Rp88
(dp89
g14
F0.6273000667745612
sg15
I01
sg16
I50
sg17
I19
sbs(I10
I62
tp90
g0
(g10
g2
Ntp91
Rp92
(dp93
g14
F2.9897979954355334
sg15
I01
sg16
I62
sg17
I10
sbs(I43
I36
tp94
g0
(g10
g2
Ntp95
Rp96
(dp97
g14
F-0.7194596059535945
sg15
I01
sg16
I36
sg17
I43
sbs(I0
I58
tp98
g0
(g10
g2
Ntp99
Rp100
(dp101
g14
F0.3544993637989983
sg15
I01
sg16
I58
sg17
I0
sbs(I63
I41
tp102
g0
(g10
g2
Ntp103
Rp104
(dp105
g14
F1.0261694817107527
sg15
I00
sg16
I41
sg17
I63
sbs(I62
I54
tp106
g0
(g10
g2
Ntp107
Rp108
(dp109
g14
F-2.4352286087280755
sg15
I00
sg16
I54
sg17
I62
sbs(I71
I42
tp110
g0
(g10
g2
Ntp111
Rp112
(dp113
g14
F-0.48778543270982516
sg15
I01
sg16
I42
sg17
I71
sbs(I23
I38
tp114
g0
(g10
g2
Ntp115
Rp116
(dp117
g14
F3.723676375514565
sg15
I01
sg16
I38
sg17
I23
sbs(I47
I37
tp118
g0
(g10
g2
Ntp119
Rp120
(dp121
g14
F4.4671486112445775
sg15
I00
sg16
I37
sg17
I47
sbs(I61
I69
tp122
g0
(g10
g2
Ntp123
Rp124
(dp125
g14
F-0.2853893131737013
sg15
I01
sg16
I69
sg17
I61
sbs(I41
I45
tp126
g0
(g10
g2
Ntp127
Rp128
(dp129
g14
F4.917180617621858
sg15
I00
sg16
I45
sg17
I41
sbs(I25
I63
tp130
g0
(g10
g2
Ntp131
Rp132
(dp133
g14
F-2.887815693390738
sg15
I01
sg16
I63
sg17
I25
sbs(I21
I65
tp134
g0
(g10
g2
Ntp135
Rp136
(dp137
g14
F1.8858362483068851
sg15
I01
sg16
I65
sg17
I21
sbs(I1
I49
tp138
g0
(g10
g2
Ntp139
Rp140
(dp141
g14
F-0.6229450935418666
sg15
I00
sg16
I49
sg17
I1
sbs(I68
I57
tp142
g0
(g10
g2
Ntp143
Rp144
(dp145
g14
F0.3837441246141887
sg15
I00
sg16
I57
sg17
I68
sbs(I5
I64
tp146
g0
(g10
g2
Ntp147
Rp148
(dp149
g14
F0.755983733702
sg15
I01
sg16
I64
sg17
I5
sbs(I6
I60
tp150
g0
(g10
g2
Ntp151
Rp152
(dp153
g14
F-3.2403606096301276
sg15
I00
sg16
I60
sg17
I6
sbs(I20
I37
tp154
g0
(g10
g2
Ntp155
Rp156
(dp157
g14
F3.705902785426772
sg15
I01
sg16
I37
sg17
I20
sbs(I62
I49
tp158
g0
(g10
g2
Ntp159
Rp160
(dp161
g14
F-3.0547157508642746
sg15
I00
sg16
I49
sg17
I62
sbs(I66
I53
tp162
g0
(g10
g2
Ntp163
Rp164
(dp165
g14
F1.5202547919701943
sg15
I01
sg16
I53
sg17
I66
sbs(I15
I43
tp166
g0
(g10
g2
Ntp167
Rp168
(dp169
g14
F2.55179478327655
sg15
I00
sg16
I43
sg17
I15
sbs(I31
I54
tp170
g0
(g10
g2
Ntp171
Rp172
(dp173
g14
F-1.9561238390257287
sg15
I01
sg16
I54
sg17
I31
sbs(I11
I52
tp174
g0
(g10
g2
Ntp175
Rp176
(dp177
g14
F-0.9966823212239481
sg15
I00
sg16
I52
sg17
I11
sbs(I26
I44
tp178
g0
(g10
g2
Ntp179
Rp180
(dp181
g14
F4.356457789992122
sg15
I00
sg16
I44
sg17
I26
sbs(I23
I63
tp182
g0
(g10
g2
Ntp183
Rp184
(dp185
g14
F-0.2853823394848474
sg15
I01
sg16
I63
sg17
I23
sbs(I24
I43
tp186
g0
(g10
g2
Ntp187
Rp188
(dp189
g14
F0.7509114903753549
sg15
I01
sg16
I43
sg17
I24
sbs(I31
I53
tp190
g0
(g10
g2
Ntp191
Rp192
(dp193
g14
F-2.9435445147577615
sg15
I00
sg16
I53
sg17
I31
sbs(I19
I43
tp194
g0
(g10
g2
Ntp195
Rp196
(dp197
g14
F-1.1691571558986003
sg15
I01
sg16
I43
sg17
I19
sbs(I32
I65
tp198
g0
(g10
g2
Ntp199
Rp200
(dp201
g14
F-2.2233161464051605
sg15
I00
sg16
I65
sg17
I32
sbs(I13
I44
tp202
g0
(g10
g2
Ntp203
Rp204
(dp205
g14
F3.0869862191087125
sg15
I00
sg16
I44
sg17
I13
sbs(I62
I58
tp206
g0
(g10
g2
Ntp207
Rp208
(dp209
g14
F1.8972861540127923
sg15
I01
sg16
I58
sg17
I62
sbs(I3
I44
tp210
g0
(g10
g2
Ntp211
Rp212
(dp213
g14
F-4.005357671300542
sg15
I01
sg16
I44
sg17
I3
sbs(I43
I62
tp214
g0
(g10
g2
Ntp215
Rp216
(dp217
g14
F1.797105047689934
sg15
I01
sg16
I62
sg17
I43
sbs(I32
I52
tp218
g0
(g10
g2
Ntp219
Rp220
(dp221
g14
F-4.889840705931239
sg15
I00
sg16
I52
sg17
I32
sbs(I70
I57
tp222
g0
(g10
g2
Ntp223
Rp224
(dp225
g14
F-1.4165715540466475
sg15
I01
sg16
I57
sg17
I70
sbs(I40
I58
tp226
g0
(g10
g2
Ntp227
Rp228
(dp229
g14
F1.0531189470238254
sg15
I01
sg16
I58
sg17
I40
sbs(I11
I45
tp230
g0
(g10
g2
Ntp231
Rp232
(dp233
g14
F-4.684625152001348
sg15
I01
sg16
I45
sg17
I11
sbs(I10
I63
tp234
g0
(g10
g2
Ntp235
Rp236
(dp237
g14
F4.013364556698579
sg15
I00
sg16
I63
sg17
I10
sbs(I63
I40
tp238
g0
(g10
g2
Ntp239
Rp240
(dp241
g14
F2.1106330880549597
sg15
I01
sg16
I40
sg17
I63
sbs(I11
I62
tp242
g0
(g10
g2
Ntp243
Rp244
(dp245
g14
F2.98099948620849
sg15
I01
sg16
I62
sg17
I11
sbs(I17
I61
tp246
g0
(g10
g2
Ntp247
Rp248
(dp249
g14
F-2.071460972963532
sg15
I01
sg16
I61
sg17
I17
sbs(I12
I70
tp250
g0
(g10
g2
Ntp251
Rp252
(dp253
g14
F0.6240686754915123
sg15
I01
sg16
I70
sg17
I12
sbs(I43
I61
tp254
g0
(g10
g2
Ntp255
Rp256
(dp257
g14
F-2.9119499489249843
sg15
I00
sg16
I61
sg17
I43
sbs(I48
I54
tp258
g0
(g10
g2
Ntp259
Rp260
(dp261
g14
F-2.161955739973263
sg15
I01
sg16
I54
sg17
I48
sbs(I47
I36
tp262
g0
(g10
g2
Ntp263
Rp264
(dp265
g14
F-4.053511739799243
sg15
I01
sg16
I36
sg17
I47
sbs(I64
I62
tp266
g0
(g10
g2
Ntp267
Rp268
(dp269
g14
F2.3927585782029737
sg15
I01
sg16
I62
sg17
I64
sbs(I61
I49
tp270
g0
(g10
g2
Ntp271
Rp272
(dp273
g14
F-2.5795106229324913
sg15
I01
sg16
I49
sg17
I61
sbs(I10
I37
tp274
g0
(g10
g2
Ntp275
Rp276
(dp277
g14
F-3.488240948612442
sg15
I01
sg16
I37
sg17
I10
sbs(I66
I60
tp278
g0
(g10
g2
Ntp279
Rp280
(dp281
g14
F-3.2890917259452417
sg15
I00
sg16
I60
sg17
I66
sbs(I24
I37
tp282
g0
(g10
g2
Ntp283
Rp284
(dp285
g14
F-1.4372825837930383
sg15
I01
sg16
I37
sg17
I24
sbs(I13
I37
tp286
g0
(g10
g2
Ntp287
Rp288
(dp289
g14
F4.891385481072538
sg15
I00
sg16
I37
sg17
I13
sbs(I43
I56
tp290
g0
(g10
g2
Ntp291
Rp292
(dp293
g14
F1.2386099933748347
sg15
I00
sg16
I56
sg17
I43
sbs(I35
I44
tp294
g0
(g10
g2
Ntp295
Rp296
(dp297
g14
F2.589819229283753
sg15
I01
sg16
I44
sg17
I35
sbs(I50
I57
tp298
g0
(g10
g2
Ntp299
Rp300
(dp301
g14
F2.8752930153565974
sg15
I00
sg16
I57
sg17
I50
sbs(I24
I60
tp302
g0
(g10
g2
Ntp303
Rp304
(dp305
g14
F-2.0674100111974703
sg15
I01
sg16
I60
sg17
I24
sbs(I65
I47
tp306
g0
(g10
g2
Ntp307
Rp308
(dp309
g14
F-3.991309304599686
sg15
I01
sg16
I47
sg17
I65
sbs(I10
I53
tp310
g0
(g10
g2
Ntp311
Rp312
(dp313
g14
F2.605894149786449
sg15
I01
sg16
I53
sg17
I10
sbs(I16
I58
tp314
g0
(g10
g2
Ntp315
Rp316
(dp317
g14
F3.2838547884842133
sg15
I01
sg16
I58
sg17
I16
sbs(I31
I66
tp318
g0
(g10
g2
Ntp319
Rp320
(dp321
g14
F-3.7983094312851864
sg15
I01
sg16
I66
sg17
I31
sbs(I12
I48
tp322
g0
(g10
g2
Ntp323
Rp324
(dp325
g14
F-0.4801560671181977
sg15
I01
sg16
I48
sg17
I12
sbs(I27
I63
tp326
g0
(g10
g2
Ntp327
Rp328
(dp329
g14
F-2.3818569898095894
sg15
I01
sg16
I63
sg17
I27
sbs(I13
I40
tp330
g0
(g10
g2
Ntp331
Rp332
(dp333
g14
F-1.695827387726194
sg15
I01
sg16
I40
sg17
I13
sbs(I45
I56
tp334
g0
(g10
g2
Ntp335
Rp336
(dp337
g14
F3.2417154861560635
sg15
I01
sg16
I56
sg17
I45
sbs(I60
I54
tp338
g0
(g10
g2
Ntp339
Rp340
(dp341
g14
F2.869584568682598
sg15
I00
sg16
I54
sg17
I60
sbs(I24
I57
tp342
g0
(g10
g2
Ntp343
Rp344
(dp345
g14
F4.205735820084184
sg15
I00
sg16
I57
sg17
I24
sbs(I14
I44
tp346
g0
(g10
g2
Ntp347
Rp348
(dp349
g14
F-0.9504244955331566
sg15
I00
sg16
I44
sg17
I14
sbs(I30
I49
tp350
g0
(g10
g2
Ntp351
Rp352
(dp353
g14
F-2.830462567215027
sg15
I01
sg16
I49
sg17
I30
sbs(I0
I63
tp354
g0
(g10
g2
Ntp355
Rp356
(dp357
g14
F-0.053868845520866016
sg15
I00
sg16
I63
sg17
I0
sbs(I20
I50
tp358
g0
(g10
g2
Ntp359
Rp360
(dp361
g14
F0.297699463703861
sg15
I01
sg16
I50
sg17
I20
sbs(I19
I42
tp362
g0
(g10
g2
Ntp363
Rp364
(dp365
g14
F-2.918029647011263
sg15
I01
sg16
I42
sg17
I19
sbs(I69
I49
tp366
g0
(g10
g2
Ntp367
Rp368
(dp369
g14
F1.71317461312815
sg15
I01
sg16
I49
sg17
I69
sbs(I30
I40
tp370
g0
(g10
g2
Ntp371
Rp372
(dp373
g14
F0.7875274194897054
sg15
I00
sg16
I40
sg17
I30
sbs(I31
I45
tp374
g0
(g10
g2
Ntp375
Rp376
(dp377
g14
F3.6128309373715495
sg15
I00
sg16
I45
sg17
I31
sbs(I6
I64
tp378
g0
(g10
g2
Ntp379
Rp380
(dp381
g14
F4.055028398812513
sg15
I00
sg16
I64
sg17
I6
sbs(I4
I54
tp382
g0
(g10
g2
Ntp383
Rp384
(dp385
g14
F0.08914869584017537
sg15
I01
sg16
I54
sg17
I4
sbs(I42
I48
tp386
g0
(g10
g2
Ntp387
Rp388
(dp389
g14
F-2.3710839099580605
sg15
I00
sg16
I48
sg17
I42
sbs(I8
I49
tp390
g0
(g10
g2
Ntp391
Rp392
(dp393
g14
F-0.061599176540825445
sg15
I01
sg16
I49
sg17
I8
sbs(I7
I43
tp394
g0
(g10
g2
Ntp395
Rp396
(dp397
g14
F2.4225635615093606
sg15
I01
sg16
I43
sg17
I7
sbs(I8
I68
tp398
g0
(g10
g2
Ntp399
Rp400
(dp401
g14
F2.766544386332198
sg15
I00
sg16
I68
sg17
I8
sbs(I67
I37
tp402
g0
(g10
g2
Ntp403
Rp404
(dp405
g14
F0.21065382478288247
sg15
I01
sg16
I37
sg17
I67
sbs(I61
I39
tp406
g0
(g10
g2
Ntp407
Rp408
(dp409
g14
F-4.368178639219469
sg15
I01
sg16
I39
sg17
I61
sbs(I17
I60
tp410
g0
(g10
g2
Ntp411
Rp412
(dp413
g14
F-0.3556199892036719
sg15
I00
sg16
I60
sg17
I17
sbs(I45
I36
tp414
g0
(g10
g2
Ntp415
Rp416
(dp417
g14
F-0.6194665522469246
sg15
I00
sg16
I36
sg17
I45
sbs(I32
I37
tp418
g0
(g10
g2
Ntp419
Rp420
(dp421
g14
F-0.3667618579926476
sg15
I01
sg16
I37
sg17
I32
sbs(I47
I39
tp422
g0
(g10
g2
Ntp423
Rp424
(dp425
g14
F-5.0
sg15
I01
sg16
I39
sg17
I47
sbs(I0
I54
tp426
g0
(g10
g2
Ntp427
Rp428
(dp429
g14
F4.607747536133655
sg15
I00
sg16
I54
sg17
I0
sbs(I35
I54
tp430
g0
(g10
g2
Ntp431
Rp432
(dp433
g14
F-4.880951978915565
sg15
I00
sg16
I54
sg17
I35
sbs(I24
I38
tp434
g0
(g10
g2
Ntp435
Rp436
(dp437
g14
F0.27857135874261146
sg15
I01
sg16
I38
sg17
I24
sbs(I19
I36
tp438
g0
(g10
g2
Ntp439
Rp440
(dp441
g14
F-4.551845193211809
sg15
I01
sg16
I36
sg17
I19
sbs(I12
I63
tp442
g0
(g10
g2
Ntp443
Rp444
(dp445
g14
F0.5836159026044938
sg15
I01
sg16
I63
sg17
I12
sbs(I12
I68
tp446
g0
(g10
g2
Ntp447
Rp448
(dp449
g14
F5.0
sg15
I00
sg16
I68
sg17
I12
sbs(I1
I41
tp450
g0
(g10
g2
Ntp451
Rp452
(dp453
g14
F-0.20319810654188353
sg15
I01
sg16
I41
sg17
I1
sbs(I48
I52
tp454
g0
(g10
g2
Ntp455
Rp456
(dp457
g14
F1.2846000970333904
sg15
I00
sg16
I52
sg17
I48
sbs(I14
I67
tp458
g0
(g10
g2
Ntp459
Rp460
(dp461
g14
F0.9326123887112094
sg15
I01
sg16
I67
sg17
I14
sbs(I63
I71
tp462
g0
(g10
g2
Ntp463
Rp464
(dp465
g14
F-2.567398584411033
sg15
I01
sg16
I71
sg17
I63
sbs(I8
I64
tp466
g0
(g10
g2
Ntp467
Rp468
(dp469
g14
F0.48572294222815443
sg15
I01
sg16
I64
sg17
I8
sbs(I6
I63
tp470
g0
(g10
g2
Ntp471
Rp472
(dp473
g14
F-2.698849007096079
sg15
I01
sg16
I63
sg17
I6
sbs(I20
I62
tp474
g0
(g10
g2
Ntp475
Rp476
(dp477
g14
F-1.2027383850936415
sg15
I01
sg16
I62
sg17
I20
sbs(I18
I39
tp478
g0
(g10
g2
Ntp479
Rp480
(dp481
g14
F4.644989488046597
sg15
I00
sg16
I39
sg17
I18
sbs(I48
I57
tp482
g0
(g10
g2
Ntp483
Rp484
(dp485
g14
F5.0
sg15
I01
sg16
I57
sg17
I48
sbs(I63
I45
tp486
g0
(g10
g2
Ntp487
Rp488
(dp489
g14
F-4.356068995299797
sg15
I01
sg16
I45
sg17
I63
sbs(I30
I36
tp490
g0
(g10
g2
Ntp491
Rp492
(dp493
g14
F-0.40290527225240425
sg15
I00
sg16
I36
sg17
I30
sbs(I22
I60
tp494
g0
(g10
g2
Ntp495
Rp496
(dp497
g14
F-0.452526818578413
sg15
I00
sg16
I60
sg17
I22
sbs(I2
I36
tp498
g0
(g10
g2
Ntp499
Rp500
(dp501
g14
F-0.0696723212971739
sg15
I00
sg16
I36
sg17
I2
sbs(I30
I44
tp502
g0
(g10
g2
Ntp503
Rp504
(dp505
g14
F-5.0
sg15
I01
sg16
I44
sg17
I30
sbs(I32
I47
tp506
g0
(g10
g2
Ntp507
Rp508
(dp509
g14
F-4.189093227751358
sg15
I00
sg16
I47
sg17
I32
sbs(I13
I67
tp510
g0
(g10
g2
Ntp511
Rp512
(dp513
g14
F5.0
sg15
I01
sg16
I67
sg17
I13
sbs(I10
I45
tp514
g0
(g10
g2
Ntp515
Rp516
(dp517
g14
F4.067154215601595
sg15
I00
sg16
I45
sg17
I10
sbs(I24
I58
tp518
g0
(g10
g2
Ntp519
Rp520
(dp521
g14
F1.4214383896868115
sg15
I00
sg16
I58
sg17
I24
sbs(I30
I54
tp522
g0
(g10
g2
Ntp523
Rp524
(dp525
g14
F0.33220110052627033
sg15
I01
sg16
I54
sg17
I30
sbs(I10
I56
tp526
g0
(g10
g2
Ntp527
Rp528
(dp529
g14
F-3.0785376272556024
sg15
I01
sg16
I56
sg17
I10
sbs(I18
I40
tp530
g0
(g10
g2
Ntp531
Rp532
(dp533
g14
F-2.2731735621614804
sg15
I00
sg16
I40
sg17
I18
sbs(I32
I67
tp534
g0
(g10
g2
Ntp535
Rp536
(dp537
g14
F0.6521754352257172
sg15
I01
sg16
I67
sg17
I32
sbssS'parent1_id'
p538
I43570
sS'num_inputs'
p539
I36
sS'node_genes'
p540
(dp541
I0
g0
(cneat.genes
NodeGene
p542
g2
Ntp543
Rp544
(dp545
S'activation_type'
p546
S'sigmoid'
p547
sS'bias'
p548
F0.0
sS'type'
p549
S'INPUT'
p550
sS'ID'
p551
I0
sS'response'
p552
F4.924273
sbsI1
g0
(g542
g2
Ntp553
Rp554
(dp555
g546
g547
sg548
F0.0
sg549
g550
sg551
I1
sg552
F4.924273
sbsI2
g0
(g542
g2
Ntp556
Rp557
(dp558
g546
g547
sg548
F0.0
sg549
g550
sg551
I2
sg552
F4.924273
sbsI3
g0
(g542
g2
Ntp559
Rp560
(dp561
g546
g547
sg548
F0.0
sg549
g550
sg551
I3
sg552
F4.924273
sbsI4
g0
(g542
g2
Ntp562
Rp563
(dp564
g546
g547
sg548
F0.0
sg549
g550
sg551
I4
sg552
F4.924273
sbsI5
g0
(g542
g2
Ntp565
Rp566
(dp567
g546
g547
sg548
F0.0
sg549
g550
sg551
I5
sg552
F4.924273
sbsI6
g0
(g542
g2
Ntp568
Rp569
(dp570
g546
g547
sg548
F0.0
sg549
g550
sg551
I6
sg552
F4.924273
sbsI7
g0
(g542
g2
Ntp571
Rp572
(dp573
g546
g547
sg548
F0.0
sg549
g550
sg551
I7
sg552
F4.924273
sbsI8
g0
(g542
g2
Ntp574
Rp575
(dp576
g546
g547
sg548
F0.0
sg549
g550
sg551
I8
sg552
F4.924273
sbsI9
g0
(g542
g2
Ntp577
Rp578
(dp579
g546
g547
sg548
F0.0
sg549
g550
sg551
I9
sg552
F4.924273
sbsI10
g0
(g542
g2
Ntp580
Rp581
(dp582
g546
g547
sg548
F0.0
sg549
g550
sg551
I10
sg552
F4.924273
sbsI11
g0
(g542
g2
Ntp583
Rp584
(dp585
g546
g547
sg548
F0.0
sg549
g550
sg551
I11
sg552
F4.924273
sbsI12
g0
(g542
g2
Ntp586
Rp587
(dp588
g546
g547
sg548
F0.0
sg549
g550
sg551
I12
sg552
F4.924273
sbsI13
g0
(g542
g2
Ntp589
Rp590
(dp591
g546
g547
sg548
F0.0
sg549
g550
sg551
I13
sg552
F4.924273
sbsI14
g0
(g542
g2
Ntp592
Rp593
(dp594
g546
g547
sg548
F0.0
sg549
g550
sg551
I14
sg552
F4.924273
sbsI15
g0
(g542
g2
Ntp595
Rp596
(dp597
g546
g547
sg548
F0.0
sg549
g550
sg551
I15
sg552
F4.924273
sbsI16
g0
(g542
g2
Ntp598
Rp599
(dp600
g546
g547
sg548
F0.0
sg549
g550
sg551
I16
sg552
F4.924273
sbsI17
g0
(g542
g2
Ntp601
Rp602
(dp603
g546
g547
sg548
F0.0
sg549
g550
sg551
I17
sg552
F4.924273
sbsI18
g0
(g542
g2
Ntp604
Rp605
(dp606
g546
g547
sg548
F0.0
sg549
g550
sg551
I18
sg552
F4.924273
sbsI19
g0
(g542
g2
Ntp607
Rp608
(dp609
g546
g547
sg548
F0.0
sg549
g550
sg551
I19
sg552
F4.924273
sbsI20
g0
(g542
g2
Ntp610
Rp611
(dp612
g546
g547
sg548
F0.0
sg549
g550
sg551
I20
sg552
F4.924273
sbsI21
g0
(g542
g2
Ntp613
Rp614
(dp615
g546
g547
sg548
F0.0
sg549
g550
sg551
I21
sg552
F4.924273
sbsI22
g0
(g542
g2
Ntp616
Rp617
(dp618
g546
g547
sg548
F0.0
sg549
g550
sg551
I22
sg552
F4.924273
sbsI23
g0
(g542
g2
Ntp619
Rp620
(dp621
g546
g547
sg548
F0.0
sg549
g550
sg551
I23
sg552
F4.924273
sbsI24
g0
(g542
g2
Ntp622
Rp623
(dp624
g546
g547
sg548
F0.0
sg549
g550
sg551
I24
sg552
F4.924273
sbsI25
g0
(g542
g2
Ntp625
Rp626
(dp627
g546
g547
sg548
F0.0
sg549
g550
sg551
I25
sg552
F4.924273
sbsI26
g0
(g542
g2
Ntp628
Rp629
(dp630
g546
g547
sg548
F0.0
sg549
g550
sg551
I26
sg552
F4.924273
sbsI27
g0
(g542
g2
Ntp631
Rp632
(dp633
g546
g547
sg548
F0.0
sg549
g550
sg551
I27
sg552
F4.924273
sbsI28
g0
(g542
g2
Ntp634
Rp635
(dp636
g546
g547
sg548
F0.0
sg549
g550
sg551
I28
sg552
F4.924273
sbsI29
g0
(g542
g2
Ntp637
Rp638
(dp639
g546
g547
sg548
F0.0
sg549
g550
sg551
I29
sg552
F4.924273
sbsI30
g0
(g542
g2
Ntp640
Rp641
(dp642
g546
g547
sg548
F0.0
sg549
g550
sg551
I30
sg552
F4.924273
sbsI31
g0
(g542
g2
Ntp643
Rp644
(dp645
g546
g547
sg548
F0.0
sg549
g550
sg551
I31
sg552
F4.924273
sbsI32
g0
(g542
g2
Ntp646
Rp647
(dp648
g546
g547
sg548
F0.0
sg549
g550
sg551
I32
sg552
F4.924273
sbsI33
g0
(g542
g2
Ntp649
Rp650
(dp651
g546
g547
sg548
F0.0
sg549
g550
sg551
I33
sg552
F4.924273
sbsI34
g0
(g542
g2
Ntp652
Rp653
(dp654
g546
g547
sg548
F0.0
sg549
g550
sg551
I34
sg552
F4.924273
sbsI35
g0
(g542
g2
Ntp655
Rp656
(dp657
g546
g547
sg548
F0.0
sg549
g550
sg551
I35
sg552
F4.924273
sbsI36
g0
(g542
g2
Ntp658
Rp659
(dp660
g546
S'sigmoid'
p661
sg548
F0.7865566228829608
sg549
S'OUTPUT'
p662
sg551
I36
sg552
F4.558062468421606
sbsI37
g0
(g542
g2
Ntp663
Rp664
(dp665
g546
g661
sg548
F5.0
sg549
g662
sg551
I37
sg552
F4.875645995709299
sbsI38
g0
(g542
g2
Ntp666
Rp667
(dp668
g546
g661
sg548
F0.4101354324418691
sg549
g662
sg551
I38
sg552
F4.164112957007653
sbsI39
g0
(g542
g2
Ntp669
Rp670
(dp671
g546
g661
sg548
F-0.30412361762975804
sg549
g662
sg551
I39
sg552
F4.829502350374978
sbsI40
g0
(g542
g2
Ntp672
Rp673
(dp674
g546
g661
sg548
F-4.638488583949378
sg549
S'HIDDEN'
p675
sg551
I40
sg552
F4.511078710033209
sbsI41
g0
(g542
g2
Ntp676
Rp677
(dp678
g546
g661
sg548
F-1.2892140366847804
sg549
g675
sg551
I41
sg552
F4.435424400100466
sbsI42
g0
(g542
g2
Ntp679
Rp680
(dp681
g546
g661
sg548
F-5.0
sg549
g675
sg551
I42
sg552
F4.930453564038712
sbsI43
g0
(g542
g2
Ntp682
Rp683
(dp684
g546
g661
sg548
F5.0
sg549
g675
sg551
I43
sg552
F4.712075793031677
sbsI44
g0
(g542
g2
Ntp685
Rp686
(dp687
g546
g661
sg548
F3.9789642518283146
sg549
g675
sg551
I44
sg552
F4.6308215227564204
sbsI45
g0
(g542
g2
Ntp688
Rp689
(dp690
g546
g661
sg548
F-5.0
sg549
g675
sg551
I45
sg552
F4.655219489513661
sbsI46
g0
(g542
g2
Ntp691
Rp692
(dp693
g546
g661
sg548
F-2.4029781564810593
sg549
g675
sg551
I46
sg552
F4.374073185642459
sbsI47
g0
(g542
g2
Ntp694
Rp695
(dp696
g546
g661
sg548
F-2.0932718754351045
sg549
g675
sg551
I47
sg552
F4.699486447216224
sbsI48
g0
(g542
g2
Ntp697
Rp698
(dp699
g546
g661
sg548
F1.0834180109632543
sg549
g675
sg551
I48
sg552
F5.0
sbsI49
g0
(g542
g2
Ntp700
Rp701
(dp702
g546
g661
sg548
F-5.0
sg549
g675
sg551
I49
sg552
F4.548995853701058
sbsI50
g0
(g542
g2
Ntp703
Rp704
(dp705
g546
g661
sg548
F-0.2759253180827064
sg549
g675
sg551
I50
sg552
F4.760939136824233
sbsI52
g0
(g542
g2
Ntp706
Rp707
(dp708
g546
g661
sg548
F1.566669372155106
sg549
g675
sg551
I52
sg552
F4.217984229857926
sbsI53
g0
(g542
g2
Ntp709
Rp710
(dp711
g546
g661
sg548
F5.0
sg549
g675
sg551
I53
sg552
F4.695251172631743
sbsI54
g0
(g542
g2
Ntp712
Rp713
(dp714
g546
g661
sg548
F-2.5286282420033084
sg549
g675
sg551
I54
sg552
F4.924472009272938
sbsI55
g0
(g542
g2
Ntp715
Rp716
(dp717
g546
g661
sg548
F1.4024060526660838
sg549
g675
sg551
I55
sg552
F4.486611544850052
sbsI56
g0
(g542
g2
Ntp718
Rp719
(dp720
g546
g661
sg548
F1.8153528861073398
sg549
g675
sg551
I56
sg552
F4.870487140796877
sbsI57
g0
(g542
g2
Ntp721
Rp722
(dp723
g546
g661
sg548
F-3.1777194850509116
sg549
g675
sg551
I57
sg552
F3.3859384837684043
sbsI58
g0
(g542
g2
Ntp724
Rp725
(dp726
g546
g661
sg548
F5.0
sg549
g675
sg551
I58
sg552
F4.974575193305533
sbsI59
g0
(g542
g2
Ntp727
Rp728
(dp729
g546
g661
sg548
F-2.745773570921742
sg549
g675
sg551
I59
sg552
F4.757219846828477
sbsI60
g0
(g542
g2
Ntp730
Rp731
(dp732
g546
g661
sg548
F-4.440130537469959
sg549
g675
sg551
I60
sg552
F4.947871390159009
sbsI61
g0
(g542
g2
Ntp733
Rp734
(dp735
g546
g661
sg548
F5.0
sg549
g675
sg551
I61
sg552
F5.0
sbsI62
g0
(g542
g2
Ntp736
Rp737
(dp738
g546
g661
sg548
F3.481267041049385
sg549
g675
sg551
I62
sg552
F4.110726742797372
sbsI63
g0
(g542
g2
Ntp739
Rp740
(dp741
g546
g661
sg548
F-2.859956589322741
sg549
g675
sg551
I63
sg552
F4.253785682742312
sbsI64
g0
(g542
g2
Ntp742
Rp743
(dp744
g546
g661
sg548
F-0.7965888150309708
sg549
g675
sg551
I64
sg552
F4.885174768415494
sbsI65
g0
(g542
g2
Ntp745
Rp746
(dp747
g546
g661
sg548
F0.7001703951844203
sg549
g675
sg551
I65
sg552
F4.893550063331301
sbsI66
g0
(g542
g2
Ntp748
Rp749
(dp750
g546
g661
sg548
F-0.3811371860069379
sg549
g675
sg551
I66
sg552
F4.399287582173225
sbsI67
g0
(g542
g2
Ntp751
Rp752
(dp753
g546
g661
sg548
F-3.258158091711425
sg549
g675
sg551
I67
sg552
F4.8616369697471535
sbsI68
g0
(g542
g2
Ntp754
Rp755
(dp756
g546
g661
sg548
F1.5013215675892364
sg549
g675
sg551
I68
sg552
F4.6555126590796005
sbsI69
g0
(g542
g2
Ntp757
Rp758
(dp759
g546
g661
sg548
F1.8139090628377355
sg549
g675
sg551
I69
sg552
F4.904820975504146
sbsI70
g0
(g542
g2
Ntp760
Rp761
(dp762
g546
g661
sg548
F0.44778798209715925
sg549
g675
sg551
I70
sg552
F4.780967958492042
sbsI71
g0
(g542
g2
Ntp763
Rp764
(dp765
g546
g661
sg548
F0.0
sg549
g675
sg551
I71
sg552
F4.934514877006386
sbssS'node_order'
p766
(lp767
I63
aI71
aI40
aI41
aI64
aI42
aI43
aI44
aI70
aI65
aI45
aI67
aI46
aI66
aI61
aI69
aI62
aI47
aI48
aI49
aI50
aI60
aI52
aI53
aI54
aI55
aI68
aI56
aI57
aI58
aI59
asS'num_outputs'
p768
I4
sS'fitness'
p769
cnumpy.core.multiarray
scalar
p770
(cnumpy
dtype
p771
(S'f8'
p772
I0
I1
tp773
Rp774
(I3
S'<'
p775
NNNI-1
I-1
I0
tp776
bS'\xe797\x0f@\xad:\xc0'
p777
tp778
Rp779
sS'parent2_id'
p780
I43595
sS'config'
p781
g0
(cneat.config
Config
p782
g2
Ntp783
Rp784
(dp785
S'weight_stdev'
p786
F1.0
sS'disjoint_coefficient'
p787
F1.0
sS'prob_delete_node'
p788
F0.03
sS'initial_connection'
p789
S'unconnected'
p790
sS'stagnation_type'
p791
cneat.stagnation
DefaultStagnation
p792
sS'weight_mutation_power'
p793
F0.825
sS'excess_coefficient'
p794
F1.0
sS'compatibility_threshold'
p795
F3.0
sS'pop_size'
p796
I150
sS'weight_coefficient'
p797
F0.4
sS'feedforward'
p798
I01
sS'prob_add_node'
p799
F0.08
sS'genotype'
p800
g1
sS'type_config'
p801
(dp802
S'DefaultStagnation'
p803
(lp804
(S'species_fitness_func'
p805
S'mean'
p806
tp807
a(S'max_stagnation'
p808
S'15'
p809
tp810
asS'DefaultReproduction'
p811
(lp812
(S'elitism'
p813
S'1'
p814
tp815
a(S'survival_threshold'
p816
S'0.2'
p817
tp818
assS'prob_mutate_activation'
p819
F0.0
sS'conn_gene_type'
p820
g10
sS'connection_fraction'
p821
NsS'activation_functions'
p822
(lp823
g661
asS'response_mutation_power'
p824
F0.1
sS'prob_add_conn'
p825
F0.988
sS'checkpoint_time_interval'
p826
NsS'checkpoint_gen_interval'
p827
NsS'prob_mutate_bias'
p828
F0.05
sS'reproduction_type'
p829
cneat.reproduction
DefaultReproduction
p830
sS'node_gene_type'
p831
g542
sS'output_nodes'
p832
I4
sS'input_nodes'
p833
I36
sS'prob_replace_weight'
p834
F0.0245
sS'registry'
p835
(dp836
S'DefaultStagnation'
p837
g792
sS'DefaultReproduction'
p838
g830
ssS'hidden_nodes'
p839
I20
sS'report'
p840
I01
sS'prob_mutate_response'
p841
F0.1
sS'collect_statistics'
p842
I01
sS'max_weight'
p843
F5.0
sS'min_weight'
p844
F-5.0
sS'prob_toggle_link'
p845
F0.0138
sS'save_best'
p846
I00
sS'max_fitness_threshold'
p847
F0.95
sS'bias_mutation_power'
p848
F2.093
sS'prob_delete_conn'
p849
F0.14
sS'reset_on_extinction'
p850
I01
sS'prob_mutate_weight'
p851
F0.46
sbsg551
I43801
sb.