ccopy_reg
_reconstructor
p0
(cneat.genome
FFGenome
p1
c__builtin__
object
p2
Ntp3
Rp4
(dp5
S'species_id'
p6
I1
sS'conn_genes'
p7
(dp8
(I23
I51
tp9
g0
(cneat.genes
ConnectionGene
p10
g2
Ntp11
Rp12
(dp13
S'weight'
p14
F1.9352198999549857
sS'enabled'
p15
I00
sS'out_node_id'
p16
I51
sS'in_node_id'
p17
I23
sbs(I28
I62
tp18
g0
(g10
g2
Ntp19
Rp20
(dp21
g14
F-2.545784993160871
sg15
I00
sg16
I62
sg17
I28
sbs(I23
I60
tp22
g0
(g10
g2
Ntp23
Rp24
(dp25
g14
F2.2833705261714345
sg15
I00
sg16
I60
sg17
I23
sbs(I73
I53
tp26
g0
(g10
g2
Ntp27
Rp28
(dp29
g14
F2.1270257897585183
sg15
I00
sg16
I53
sg17
I73
sbs(I10
I37
tp30
g0
(g10
g2
Ntp31
Rp32
(dp33
g14
F-0.5076105977043545
sg15
I01
sg16
I37
sg17
I10
sbs(I1
I45
tp34
g0
(g10
g2
Ntp35
Rp36
(dp37
g14
F4.496714511854335
sg15
I01
sg16
I45
sg17
I1
sbs(I72
I53
tp38
g0
(g10
g2
Ntp39
Rp40
(dp41
g14
F-4.232065157318769
sg15
I01
sg16
I53
sg17
I72
sbs(I3
I62
tp42
g0
(g10
g2
Ntp43
Rp44
(dp45
g14
F-1.677655836693123
sg15
I01
sg16
I62
sg17
I3
sbs(I2
I42
tp46
g0
(g10
g2
Ntp47
Rp48
(dp49
g14
F-3.4252176456694596
sg15
I01
sg16
I42
sg17
I2
sbs(I50
I39
tp50
g0
(g10
g2
Ntp51
Rp52
(dp53
g14
F-0.14266175116075022
sg15
I00
sg16
I39
sg17
I50
sbs(I74
I56
tp54
g0
(g10
g2
Ntp55
Rp56
(dp57
g14
F2.452859915096898
sg15
I01
sg16
I56
sg17
I74
sbs(I64
I48
tp58
g0
(g10
g2
Ntp59
Rp60
(dp61
g14
F-1.0698955353279798
sg15
I01
sg16
I48
sg17
I64
sbs(I20
I70
tp62
g0
(g10
g2
Ntp63
Rp64
(dp65
g14
F-0.7204229778106002
sg15
I01
sg16
I70
sg17
I20
sbs(I5
I60
tp66
g0
(g10
g2
Ntp67
Rp68
(dp69
g14
F-2.947322539003165
sg15
I01
sg16
I60
sg17
I5
sbs(I29
I47
tp70
g0
(g10
g2
Ntp71
Rp72
(dp73
g14
F4.439809413597387
sg15
I00
sg16
I47
sg17
I29
sbs(I61
I39
tp74
g0
(g10
g2
Ntp75
Rp76
(dp77
g14
F-1.3989800220295616
sg15
I00
sg16
I39
sg17
I61
sbs(I17
I36
tp78
g0
(g10
g2
Ntp79
Rp80
(dp81
g14
F-2.4220480499988186
sg15
I01
sg16
I36
sg17
I17
sbs(I6
I51
tp82
g0
(g10
g2
Ntp83
Rp84
(dp85
g14
F-2.564386673886899
sg15
I01
sg16
I51
sg17
I6
sbs(I20
I58
tp86
g0
(g10
g2
Ntp87
Rp88
(dp89
g14
F-4.326893407991931
sg15
I00
sg16
I58
sg17
I20
sbs(I19
I39
tp90
g0
(g10
g2
Ntp91
Rp92
(dp93
g14
F1.870102353909001
sg15
I01
sg16
I39
sg17
I19
sbs(I44
I39
tp94
g0
(g10
g2
Ntp95
Rp96
(dp97
g14
F-0.2730734500904455
sg15
I00
sg16
I39
sg17
I44
sbs(I6
I41
tp98
g0
(g10
g2
Ntp99
Rp100
(dp101
g14
F4.549218357243559
sg15
I00
sg16
I41
sg17
I6
sbs(I45
I51
tp102
g0
(g10
g2
Ntp103
Rp104
(dp105
g14
F-0.6208426804811253
sg15
I01
sg16
I51
sg17
I45
sbs(I31
I38
tp106
g0
(g10
g2
Ntp107
Rp108
(dp109
g14
F0.5594325679433843
sg15
I01
sg16
I38
sg17
I31
sbs(I55
I37
tp110
g0
(g10
g2
Ntp111
Rp112
(dp113
g14
F-5.0
sg15
I01
sg16
I37
sg17
I55
sbs(I19
I60
tp114
g0
(g10
g2
Ntp115
Rp116
(dp117
g14
F-0.055464223243223865
sg15
I01
sg16
I60
sg17
I19
sbs(I6
I67
tp118
g0
(g10
g2
Ntp119
Rp120
(dp121
g14
F1.716789884918763
sg15
I00
sg16
I67
sg17
I6
sbs(I68
I57
tp122
g0
(g10
g2
Ntp123
Rp124
(dp125
g14
F3.4919938178299468
sg15
I01
sg16
I57
sg17
I68
sbs(I42
I52
tp126
g0
(g10
g2
Ntp127
Rp128
(dp129
g14
F3.8206066131647822
sg15
I00
sg16
I52
sg17
I42
sbs(I22
I61
tp130
g0
(g10
g2
Ntp131
Rp132
(dp133
g14
F-3.221904698990883
sg15
I01
sg16
I61
sg17
I22
sbs(I65
I71
tp134
g0
(g10
g2
Ntp135
Rp136
(dp137
g14
F0.8974943344309906
sg15
I01
sg16
I71
sg17
I65
sbs(I21
I42
tp138
g0
(g10
g2
Ntp139
Rp140
(dp141
g14
F-3.097001903870452
sg15
I00
sg16
I42
sg17
I21
sbs(I1
I43
tp142
g0
(g10
g2
Ntp143
Rp144
(dp145
g14
F1.416053910079366
sg15
I00
sg16
I43
sg17
I1
sbs(I67
I68
tp146
g0
(g10
g2
Ntp147
Rp148
(dp149
g14
F-0.5559094424039174
sg15
I00
sg16
I68
sg17
I67
sbs(I59
I55
tp150
g0
(g10
g2
Ntp151
Rp152
(dp153
g14
F-2.854786419490333
sg15
I01
sg16
I55
sg17
I59
sbs(I23
I37
tp154
g0
(g10
g2
Ntp155
Rp156
(dp157
g14
F2.073184623564938
sg15
I00
sg16
I37
sg17
I23
sbs(I22
I52
tp158
g0
(g10
g2
Ntp159
Rp160
(dp161
g14
F0.1764684482929995
sg15
I00
sg16
I52
sg17
I22
sbs(I50
I56
tp162
g0
(g10
g2
Ntp163
Rp164
(dp165
g14
F-2.894786760358217
sg15
I00
sg16
I56
sg17
I50
sbs(I27
I37
tp166
g0
(g10
g2
Ntp167
Rp168
(dp169
g14
F-1.2851016692023354
sg15
I01
sg16
I37
sg17
I27
sbs(I25
I47
tp170
g0
(g10
g2
Ntp171
Rp172
(dp173
g14
F-3.6747252569258535
sg15
I00
sg16
I47
sg17
I25
sbs(I14
I48
tp174
g0
(g10
g2
Ntp175
Rp176
(dp177
g14
F-0.45582739134262795
sg15
I01
sg16
I48
sg17
I14
sbs(I7
I64
tp178
g0
(g10
g2
Ntp179
Rp180
(dp181
g14
F-4.5500405043183365
sg15
I01
sg16
I64
sg17
I7
sbs(I17
I45
tp182
g0
(g10
g2
Ntp183
Rp184
(dp185
g14
F-0.12304275549908128
sg15
I00
sg16
I45
sg17
I17
sbs(I62
I39
tp186
g0
(g10
g2
Ntp187
Rp188
(dp189
g14
F2.202013037140679
sg15
I00
sg16
I39
sg17
I62
sbs(I0
I42
tp190
g0
(g10
g2
Ntp191
Rp192
(dp193
g14
F-1.9189146496794365
sg15
I00
sg16
I42
sg17
I0
sbs(I47
I59
tp194
g0
(g10
g2
Ntp195
Rp196
(dp197
g14
F-4.52686254763725
sg15
I00
sg16
I59
sg17
I47
sbs(I46
I49
tp198
g0
(g10
g2
Ntp199
Rp200
(dp201
g14
F3.1228088347494674
sg15
I01
sg16
I49
sg17
I46
sbs(I52
I54
tp202
g0
(g10
g2
Ntp203
Rp204
(dp205
g14
F-3.692744097016314
sg15
I01
sg16
I54
sg17
I52
sbs(I23
I71
tp206
g0
(g10
g2
Ntp207
Rp208
(dp209
g14
F3.86994257959247
sg15
I01
sg16
I71
sg17
I23
sbs(I27
I44
tp210
g0
(g10
g2
Ntp211
Rp212
(dp213
g14
F-1.0470688665295715
sg15
I01
sg16
I44
sg17
I27
sbs(I45
I47
tp214
g0
(g10
g2
Ntp215
Rp216
(dp217
g14
F-0.38430096503677097
sg15
I01
sg16
I47
sg17
I45
sbs(I44
I57
tp218
g0
(g10
g2
Ntp219
Rp220
(dp221
g14
F-0.2371586975641075
sg15
I00
sg16
I57
sg17
I44
sbs(I33
I49
tp222
g0
(g10
g2
Ntp223
Rp224
(dp225
g14
F0.9998181531747654
sg15
I00
sg16
I49
sg17
I33
sbs(I5
I46
tp226
g0
(g10
g2
Ntp227
Rp228
(dp229
g14
F4.567876964403103
sg15
I01
sg16
I46
sg17
I5
sbs(I71
I51
tp230
g0
(g10
g2
Ntp231
Rp232
(dp233
g14
F0.27913616547674247
sg15
I01
sg16
I51
sg17
I71
sbs(I6
I45
tp234
g0
(g10
g2
Ntp235
Rp236
(dp237
g14
F0.05875608290408674
sg15
I01
sg16
I45
sg17
I6
sbs(I6
I48
tp238
g0
(g10
g2
Ntp239
Rp240
(dp241
g14
F0.05110732530771263
sg15
I01
sg16
I48
sg17
I6
sbs(I18
I47
tp242
g0
(g10
g2
Ntp243
Rp244
(dp245
g14
F1.371639407959061
sg15
I01
sg16
I47
sg17
I18
sbs(I6
I74
tp246
g0
(g10
g2
Ntp247
Rp248
(dp249
g14
F-0.5665115750677966
sg15
I01
sg16
I74
sg17
I6
sbs(I43
I61
tp250
g0
(g10
g2
Ntp251
Rp252
(dp253
g14
F-1.010524422681658
sg15
I00
sg16
I61
sg17
I43
sbs(I65
I63
tp254
g0
(g10
g2
Ntp255
Rp256
(dp257
g14
F-0.3881041445904674
sg15
I00
sg16
I63
sg17
I65
sbs(I66
I39
tp258
g0
(g10
g2
Ntp259
Rp260
(dp261
g14
F0.7169553856239035
sg15
I00
sg16
I39
sg17
I66
sbs(I60
I63
tp262
g0
(g10
g2
Ntp263
Rp264
(dp265
g14
F-0.05238738736628307
sg15
I00
sg16
I63
sg17
I60
sbs(I13
I58
tp266
g0
(g10
g2
Ntp267
Rp268
(dp269
g14
F-2.02711028112015
sg15
I00
sg16
I58
sg17
I13
sbs(I25
I51
tp270
g0
(g10
g2
Ntp271
Rp272
(dp273
g14
F-4.227816218207669
sg15
I01
sg16
I51
sg17
I25
sbs(I49
I51
tp274
g0
(g10
g2
Ntp275
Rp276
(dp277
g14
F3.3252030143281783
sg15
I01
sg16
I51
sg17
I49
sbs(I13
I50
tp278
g0
(g10
g2
Ntp279
Rp280
(dp281
g14
F3.734763575915999
sg15
I01
sg16
I50
sg17
I13
sbs(I28
I59
tp282
g0
(g10
g2
Ntp283
Rp284
(dp285
g14
F-3.463457238910139
sg15
I01
sg16
I59
sg17
I28
sbs(I69
I59
tp286
g0
(g10
g2
Ntp287
Rp288
(dp289
g14
F0.3027607199787286
sg15
I00
sg16
I59
sg17
I69
sbs(I32
I62
tp290
g0
(g10
g2
Ntp291
Rp292
(dp293
g14
F3.089052102998493
sg15
I00
sg16
I62
sg17
I32
sbs(I48
I51
tp294
g0
(g10
g2
Ntp295
Rp296
(dp297
g14
F-0.13391834189026514
sg15
I01
sg16
I51
sg17
I48
sbs(I33
I44
tp298
g0
(g10
g2
Ntp299
Rp300
(dp301
g14
F0.9118733412350075
sg15
I01
sg16
I44
sg17
I33
sbs(I31
I36
tp302
g0
(g10
g2
Ntp303
Rp304
(dp305
g14
F-1.621384934612753
sg15
I00
sg16
I36
sg17
I31
sbs(I5
I49
tp306
g0
(g10
g2
Ntp307
Rp308
(dp309
g14
F0.3241787741448346
sg15
I01
sg16
I49
sg17
I5
sbs(I26
I69
tp310
g0
(g10
g2
Ntp311
Rp312
(dp313
g14
F-3.577315523008666
sg15
I01
sg16
I69
sg17
I26
sbs(I21
I67
tp314
g0
(g10
g2
Ntp315
Rp316
(dp317
g14
F-5.0
sg15
I01
sg16
I67
sg17
I21
sbs(I10
I53
tp318
g0
(g10
g2
Ntp319
Rp320
(dp321
g14
F-5.0
sg15
I01
sg16
I53
sg17
I10
sbs(I1
I51
tp322
g0
(g10
g2
Ntp323
Rp324
(dp325
g14
F0.45116611453067657
sg15
I01
sg16
I51
sg17
I1
sbs(I0
I37
tp326
g0
(g10
g2
Ntp327
Rp328
(dp329
g14
F0.11735953202449811
sg15
I00
sg16
I37
sg17
I0
sbs(I66
I44
tp330
g0
(g10
g2
Ntp331
Rp332
(dp333
g14
F2.290023969051672
sg15
I00
sg16
I44
sg17
I66
sbs(I46
I53
tp334
g0
(g10
g2
Ntp335
Rp336
(dp337
g14
F3.873462616691987
sg15
I00
sg16
I53
sg17
I46
sbs(I11
I56
tp338
g0
(g10
g2
Ntp339
Rp340
(dp341
g14
F-1.5940227471830033
sg15
I00
sg16
I56
sg17
I11
sbs(I23
I64
tp342
g0
(g10
g2
Ntp343
Rp344
(dp345
g14
F2.7826167212518507
sg15
I00
sg16
I64
sg17
I23
sbs(I13
I53
tp346
g0
(g10
g2
Ntp347
Rp348
(dp349
g14
F0.6646457094654395
sg15
I01
sg16
I53
sg17
I13
sbs(I4
I43
tp350
g0
(g10
g2
Ntp351
Rp352
(dp353
g14
F5.0
sg15
I01
sg16
I43
sg17
I4
sbs(I12
I72
tp354
g0
(g10
g2
Ntp355
Rp356
(dp357
g14
F-3.068668674781459
sg15
I01
sg16
I72
sg17
I12
sbs(I29
I61
tp358
g0
(g10
g2
Ntp359
Rp360
(dp361
g14
F-0.29158077264486804
sg15
I00
sg16
I61
sg17
I29
sbs(I20
I67
tp362
g0
(g10
g2
Ntp363
Rp364
(dp365
g14
F1.3310212236714063
sg15
I00
sg16
I67
sg17
I20
sbs(I4
I49
tp366
g0
(g10
g2
Ntp367
Rp368
(dp369
g14
F-0.7651430808412346
sg15
I00
sg16
I49
sg17
I4
sbs(I8
I52
tp370
g0
(g10
g2
Ntp371
Rp372
(dp373
g14
F-0.3511384017586907
sg15
I01
sg16
I52
sg17
I8
sbs(I61
I36
tp374
g0
(g10
g2
Ntp375
Rp376
(dp377
g14
F-0.7640243619308946
sg15
I00
sg16
I36
sg17
I61
sbs(I17
I49
tp378
g0
(g10
g2
Ntp379
Rp380
(dp381
g14
F-5.0
sg15
I00
sg16
I49
sg17
I17
sbs(I73
I44
tp382
g0
(g10
g2
Ntp383
Rp384
(dp385
g14
F-1.5107137750236348
sg15
I01
sg16
I44
sg17
I73
sbs(I12
I53
tp386
g0
(g10
g2
Ntp387
Rp388
(dp389
g14
F0.054180691916850376
sg15
I00
sg16
I53
sg17
I12
sbs(I17
I70
tp390
g0
(g10
g2
Ntp391
Rp392
(dp393
g14
F-0.10935778980987693
sg15
I00
sg16
I70
sg17
I17
sbs(I49
I56
tp394
g0
(g10
g2
Ntp395
Rp396
(dp397
g14
F4.721394816429112
sg15
I00
sg16
I56
sg17
I49
sbs(I59
I37
tp398
g0
(g10
g2
Ntp399
Rp400
(dp401
g14
F-5.0
sg15
I00
sg16
I37
sg17
I59
sbs(I7
I43
tp402
g0
(g10
g2
Ntp403
Rp404
(dp405
g14
F0.7742698131355804
sg15
I00
sg16
I43
sg17
I7
sbs(I10
I60
tp406
g0
(g10
g2
Ntp407
Rp408
(dp409
g14
F-2.1434202495119234
sg15
I00
sg16
I60
sg17
I10
sbs(I33
I66
tp410
g0
(g10
g2
Ntp411
Rp412
(dp413
g14
F-3.9578751709519606
sg15
I01
sg16
I66
sg17
I33
sbs(I6
I68
tp414
g0
(g10
g2
Ntp415
Rp416
(dp417
g14
F-4.227236279599595
sg15
I01
sg16
I68
sg17
I6
sbs(I19
I41
tp418
g0
(g10
g2
Ntp419
Rp420
(dp421
g14
F5.0
sg15
I00
sg16
I41
sg17
I19
sbs(I17
I60
tp422
g0
(g10
g2
Ntp423
Rp424
(dp425
g14
F2.1861854393129274
sg15
I00
sg16
I60
sg17
I17
sbs(I17
I65
tp426
g0
(g10
g2
Ntp427
Rp428
(dp429
g14
F3.872691936350222
sg15
I01
sg16
I65
sg17
I17
sbs(I63
I49
tp430
g0
(g10
g2
Ntp431
Rp432
(dp433
g14
F0.6175407823406192
sg15
I00
sg16
I49
sg17
I63
sbs(I27
I42
tp434
g0
(g10
g2
Ntp435
Rp436
(dp437
g14
F-2.171340224675876
sg15
I01
sg16
I42
sg17
I27
sbs(I6
I47
tp438
g0
(g10
g2
Ntp439
Rp440
(dp441
g14
F0.37240019600818197
sg15
I01
sg16
I47
sg17
I6
sbs(I27
I64
tp442
g0
(g10
g2
Ntp443
Rp444
(dp445
g14
F-0.9497988006724631
sg15
I01
sg16
I64
sg17
I27
sbs(I67
I47
tp446
g0
(g10
g2
Ntp447
Rp448
(dp449
g14
F-0.24143829463411126
sg15
I01
sg16
I47
sg17
I67
sbs(I60
I43
tp450
g0
(g10
g2
Ntp451
Rp452
(dp453
g14
F2.6438748949164124
sg15
I00
sg16
I43
sg17
I60
sbs(I51
I61
tp454
g0
(g10
g2
Ntp455
Rp456
(dp457
g14
F5.0
sg15
I01
sg16
I61
sg17
I51
sbs(I17
I63
tp458
g0
(g10
g2
Ntp459
Rp460
(dp461
g14
F2.8516225798052255
sg15
I01
sg16
I63
sg17
I17
sbs(I18
I60
tp462
g0
(g10
g2
Ntp463
Rp464
(dp465
g14
F-0.8882436556360561
sg15
I01
sg16
I60
sg17
I18
sbs(I70
I49
tp466
g0
(g10
g2
Ntp467
Rp468
(dp469
g14
F-3.87830216822313
sg15
I00
sg16
I49
sg17
I70
sbs(I69
I55
tp470
g0
(g10
g2
Ntp471
Rp472
(dp473
g14
F-0.7162489905902382
sg15
I01
sg16
I55
sg17
I69
sbs(I65
I52
tp474
g0
(g10
g2
Ntp475
Rp476
(dp477
g14
F1.187187598581102
sg15
I00
sg16
I52
sg17
I65
sbs(I31
I39
tp478
g0
(g10
g2
Ntp479
Rp480
(dp481
g14
F2.037107425193423
sg15
I00
sg16
I39
sg17
I31
sbs(I9
I53
tp482
g0
(g10
g2
Ntp483
Rp484
(dp485
g14
F4.307738202872139
sg15
I01
sg16
I53
sg17
I9
sbs(I0
I51
tp486
g0
(g10
g2
Ntp487
Rp488
(dp489
g14
F-3.1262223080666773
sg15
I01
sg16
I51
sg17
I0
sbs(I16
I40
tp490
g0
(g10
g2
Ntp491
Rp492
(dp493
g14
F-4.110665898966085
sg15
I00
sg16
I40
sg17
I16
sbs(I42
I56
tp494
g0
(g10
g2
Ntp495
Rp496
(dp497
g14
F1.0454018780661856
sg15
I00
sg16
I56
sg17
I42
sbs(I68
I56
tp498
g0
(g10
g2
Ntp499
Rp500
(dp501
g14
F3.4799603259988645
sg15
I00
sg16
I56
sg17
I68
sbs(I28
I57
tp502
g0
(g10
g2
Ntp503
Rp504
(dp505
g14
F5.0
sg15
I00
sg16
I57
sg17
I28
sbs(I33
I52
tp506
g0
(g10
g2
Ntp507
Rp508
(dp509
g14
F-0.28928146317464587
sg15
I00
sg16
I52
sg17
I33
sbs(I28
I36
tp510
g0
(g10
g2
Ntp511
Rp512
(dp513
g14
F0.09303265184318417
sg15
I01
sg16
I36
sg17
I28
sbs(I64
I44
tp514
g0
(g10
g2
Ntp515
Rp516
(dp517
g14
F-2.709142563649247
sg15
I01
sg16
I44
sg17
I64
sbs(I10
I56
tp518
g0
(g10
g2
Ntp519
Rp520
(dp521
g14
F0.18604557091551038
sg15
I01
sg16
I56
sg17
I10
sbs(I9
I48
tp522
g0
(g10
g2
Ntp523
Rp524
(dp525
g14
F1.7580721158780193
sg15
I00
sg16
I48
sg17
I9
sbs(I6
I56
tp526
g0
(g10
g2
Ntp527
Rp528
(dp529
g14
F5.0
sg15
I01
sg16
I56
sg17
I6
sbs(I28
I51
tp530
g0
(g10
g2
Ntp531
Rp532
(dp533
g14
F-0.3990338836735756
sg15
I00
sg16
I51
sg17
I28
sbssS'parent1_id'
p534
I41381
sS'num_inputs'
p535
I36
sS'node_genes'
p536
(dp537
I0
g0
(cneat.genes
NodeGene
p538
g2
Ntp539
Rp540
(dp541
S'activation_type'
p542
S'sigmoid'
p543
sS'bias'
p544
F0.0
sS'type'
p545
S'INPUT'
p546
sS'ID'
p547
I0
sS'response'
p548
F4.924273
sbsI1
g0
(g538
g2
Ntp549
Rp550
(dp551
g542
g543
sg544
F0.0
sg545
g546
sg547
I1
sg548
F4.924273
sbsI2
g0
(g538
g2
Ntp552
Rp553
(dp554
g542
g543
sg544
F0.0
sg545
g546
sg547
I2
sg548
F4.924273
sbsI3
g0
(g538
g2
Ntp555
Rp556
(dp557
g542
g543
sg544
F0.0
sg545
g546
sg547
I3
sg548
F4.924273
sbsI4
g0
(g538
g2
Ntp558
Rp559
(dp560
g542
g543
sg544
F0.0
sg545
g546
sg547
I4
sg548
F4.924273
sbsI5
g0
(g538
g2
Ntp561
Rp562
(dp563
g542
g543
sg544
F0.0
sg545
g546
sg547
I5
sg548
F4.924273
sbsI6
g0
(g538
g2
Ntp564
Rp565
(dp566
g542
g543
sg544
F0.0
sg545
g546
sg547
I6
sg548
F4.924273
sbsI7
g0
(g538
g2
Ntp567
Rp568
(dp569
g542
g543
sg544
F0.0
sg545
g546
sg547
I7
sg548
F4.924273
sbsI8
g0
(g538
g2
Ntp570
Rp571
(dp572
g542
g543
sg544
F0.0
sg545
g546
sg547
I8
sg548
F4.924273
sbsI9
g0
(g538
g2
Ntp573
Rp574
(dp575
g542
g543
sg544
F0.0
sg545
g546
sg547
I9
sg548
F4.924273
sbsI10
g0
(g538
g2
Ntp576
Rp577
(dp578
g542
g543
sg544
F0.0
sg545
g546
sg547
I10
sg548
F4.924273
sbsI11
g0
(g538
g2
Ntp579
Rp580
(dp581
g542
g543
sg544
F0.0
sg545
g546
sg547
I11
sg548
F4.924273
sbsI12
g0
(g538
g2
Ntp582
Rp583
(dp584
g542
g543
sg544
F0.0
sg545
g546
sg547
I12
sg548
F4.924273
sbsI13
g0
(g538
g2
Ntp585
Rp586
(dp587
g542
g543
sg544
F0.0
sg545
g546
sg547
I13
sg548
F4.924273
sbsI14
g0
(g538
g2
Ntp588
Rp589
(dp590
g542
g543
sg544
F0.0
sg545
g546
sg547
I14
sg548
F4.924273
sbsI15
g0
(g538
g2
Ntp591
Rp592
(dp593
g542
g543
sg544
F0.0
sg545
g546
sg547
I15
sg548
F4.924273
sbsI16
g0
(g538
g2
Ntp594
Rp595
(dp596
g542
g543
sg544
F0.0
sg545
g546
sg547
I16
sg548
F4.924273
sbsI17
g0
(g538
g2
Ntp597
Rp598
(dp599
g542
g543
sg544
F0.0
sg545
g546
sg547
I17
sg548
F4.924273
sbsI18
g0
(g538
g2
Ntp600
Rp601
(dp602
g542
g543
sg544
F0.0
sg545
g546
sg547
I18
sg548
F4.924273
sbsI19
g0
(g538
g2
Ntp603
Rp604
(dp605
g542
g543
sg544
F0.0
sg545
g546
sg547
I19
sg548
F4.924273
sbsI20
g0
(g538
g2
Ntp606
Rp607
(dp608
g542
g543
sg544
F0.0
sg545
g546
sg547
I20
sg548
F4.924273
sbsI21
g0
(g538
g2
Ntp609
Rp610
(dp611
g542
g543
sg544
F0.0
sg545
g546
sg547
I21
sg548
F4.924273
sbsI22
g0
(g538
g2
Ntp612
Rp613
(dp614
g542
g543
sg544
F0.0
sg545
g546
sg547
I22
sg548
F4.924273
sbsI23
g0
(g538
g2
Ntp615
Rp616
(dp617
g542
g543
sg544
F0.0
sg545
g546
sg547
I23
sg548
F4.924273
sbsI24
g0
(g538
g2
Ntp618
Rp619
(dp620
g542
g543
sg544
F0.0
sg545
g546
sg547
I24
sg548
F4.924273
sbsI25
g0
(g538
g2
Ntp621
Rp622
(dp623
g542
g543
sg544
F0.0
sg545
g546
sg547
I25
sg548
F4.924273
sbsI26
g0
(g538
g2
Ntp624
Rp625
(dp626
g542
g543
sg544
F0.0
sg545
g546
sg547
I26
sg548
F4.924273
sbsI27
g0
(g538
g2
Ntp627
Rp628
(dp629
g542
g543
sg544
F0.0
sg545
g546
sg547
I27
sg548
F4.924273
sbsI28
g0
(g538
g2
Ntp630
Rp631
(dp632
g542
g543
sg544
F0.0
sg545
g546
sg547
I28
sg548
F4.924273
sbsI29
g0
(g538
g2
Ntp633
Rp634
(dp635
g542
g543
sg544
F0.0
sg545
g546
sg547
I29
sg548
F4.924273
sbsI30
g0
(g538
g2
Ntp636
Rp637
(dp638
g542
g543
sg544
F0.0
sg545
g546
sg547
I30
sg548
F4.924273
sbsI31
g0
(g538
g2
Ntp639
Rp640
(dp641
g542
g543
sg544
F0.0
sg545
g546
sg547
I31
sg548
F4.924273
sbsI32
g0
(g538
g2
Ntp642
Rp643
(dp644
g542
g543
sg544
F0.0
sg545
g546
sg547
I32
sg548
F4.924273
sbsI33
g0
(g538
g2
Ntp645
Rp646
(dp647
g542
g543
sg544
F0.0
sg545
g546
sg547
I33
sg548
F4.924273
sbsI34
g0
(g538
g2
Ntp648
Rp649
(dp650
g542
g543
sg544
F0.0
sg545
g546
sg547
I34
sg548
F4.924273
sbsI35
g0
(g538
g2
Ntp651
Rp652
(dp653
g542
g543
sg544
F0.0
sg545
g546
sg547
I35
sg548
F4.924273
sbsI36
g0
(g538
g2
Ntp654
Rp655
(dp656
g542
S'sigmoid'
p657
sg544
F5.0
sg545
S'OUTPUT'
p658
sg547
I36
sg548
F4.854495938388383
sbsI37
g0
(g538
g2
Ntp659
Rp660
(dp661
g542
g657
sg544
F5.0
sg545
g658
sg547
I37
sg548
F4.835303529196131
sbsI38
g0
(g538
g2
Ntp662
Rp663
(dp664
g542
g657
sg544
F-2.5572020393929176
sg545
g658
sg547
I38
sg548
F4.520575814029005
sbsI39
g0
(g538
g2
Ntp665
Rp666
(dp667
g542
g657
sg544
F-1.7834177730876961
sg545
g658
sg547
I39
sg548
F5.0
sbsI40
g0
(g538
g2
Ntp668
Rp669
(dp670
g542
g657
sg544
F3.094468749103849
sg545
S'HIDDEN'
p671
sg547
I40
sg548
F4.545595230374757
sbsI41
g0
(g538
g2
Ntp672
Rp673
(dp674
g542
g657
sg544
F-2.764010181586421
sg545
g671
sg547
I41
sg548
F4.8382553354356626
sbsI42
g0
(g538
g2
Ntp675
Rp676
(dp677
g542
g657
sg544
F1.3275550035482315
sg545
g671
sg547
I42
sg548
F4.937411602789146
sbsI43
g0
(g538
g2
Ntp678
Rp679
(dp680
g542
g657
sg544
F0.5138560541108426
sg545
g671
sg547
I43
sg548
F4.602251204238746
sbsI44
g0
(g538
g2
Ntp681
Rp682
(dp683
g542
g657
sg544
F-5.0
sg545
g671
sg547
I44
sg548
F4.7906718618608455
sbsI45
g0
(g538
g2
Ntp684
Rp685
(dp686
g542
g657
sg544
F-3.997482340185342
sg545
g671
sg547
I45
sg548
F4.302896558426866
sbsI46
g0
(g538
g2
Ntp687
Rp688
(dp689
g542
g657
sg544
F2.6682510857386053
sg545
g671
sg547
I46
sg548
F5.0
sbsI47
g0
(g538
g2
Ntp690
Rp691
(dp692
g542
g657
sg544
F5.0
sg545
g671
sg547
I47
sg548
F4.9635743594592405
sbsI48
g0
(g538
g2
Ntp693
Rp694
(dp695
g542
g657
sg544
F3.105861113446238
sg545
g671
sg547
I48
sg548
F4.295890328365754
sbsI49
g0
(g538
g2
Ntp696
Rp697
(dp698
g542
g657
sg544
F-3.1946682042286194
sg545
g671
sg547
I49
sg548
F4.621905612249018
sbsI50
g0
(g538
g2
Ntp699
Rp700
(dp701
g542
g657
sg544
F-0.05946028124384006
sg545
g671
sg547
I50
sg548
F4.460595774350303
sbsI51
g0
(g538
g2
Ntp702
Rp703
(dp704
g542
g657
sg544
F5.0
sg545
g671
sg547
I51
sg548
F4.884988406636254
sbsI52
g0
(g538
g2
Ntp705
Rp706
(dp707
g542
g657
sg544
F0.5732635652179291
sg545
g671
sg547
I52
sg548
F3.5391120434655563
sbsI53
g0
(g538
g2
Ntp708
Rp709
(dp710
g542
g657
sg544
F5.0
sg545
g671
sg547
I53
sg548
F4.0681050650568045
sbsI54
g0
(g538
g2
Ntp711
Rp712
(dp713
g542
g657
sg544
F3.607059587544955
sg545
g671
sg547
I54
sg548
F4.844191012428587
sbsI55
g0
(g538
g2
Ntp714
Rp715
(dp716
g542
g657
sg544
F0.8985203733740987
sg545
g671
sg547
I55
sg548
F4.828343305867918
sbsI56
g0
(g538
g2
Ntp717
Rp718
(dp719
g542
g657
sg544
F1.6957295064772293
sg545
g671
sg547
I56
sg548
F4.592141077748983
sbsI57
g0
(g538
g2
Ntp720
Rp721
(dp722
g542
g657
sg544
F2.6511442149657443
sg545
g671
sg547
I57
sg548
F4.5822416603431195
sbsI58
g0
(g538
g2
Ntp723
Rp724
(dp725
g542
g657
sg544
F-1.6347755535506532
sg545
g671
sg547
I58
sg548
F4.82388760248016
sbsI59
g0
(g538
g2
Ntp726
Rp727
(dp728
g542
g657
sg544
F-1.2949674578571182
sg545
g671
sg547
I59
sg548
F4.879595394041261
sbsI60
g0
(g538
g2
Ntp729
Rp730
(dp731
g542
g657
sg544
F-4.427586602125559
sg545
g671
sg547
I60
sg548
F4.765713516021918
sbsI61
g0
(g538
g2
Ntp732
Rp733
(dp734
g542
g657
sg544
F5.0
sg545
g671
sg547
I61
sg548
F4.520939267248561
sbsI62
g0
(g538
g2
Ntp735
Rp736
(dp737
g542
g657
sg544
F2.4871794544635257
sg545
g671
sg547
I62
sg548
F4.918198289857624
sbsI63
g0
(g538
g2
Ntp738
Rp739
(dp740
g542
g657
sg544
F-5.0
sg545
g671
sg547
I63
sg548
F4.939749968811437
sbsI64
g0
(g538
g2
Ntp741
Rp742
(dp743
g542
g657
sg544
F-3.71931098528327
sg545
g671
sg547
I64
sg548
F4.860588456680577
sbsI65
g0
(g538
g2
Ntp744
Rp745
(dp746
g542
g657
sg544
F0.6929007851261473
sg545
g671
sg547
I65
sg548
F5.0
sbsI66
g0
(g538
g2
Ntp747
Rp748
(dp749
g542
g657
sg544
F-1.7891758277996794
sg545
g671
sg547
I66
sg548
F4.992102466928025
sbsI67
g0
(g538
g2
Ntp750
Rp751
(dp752
g542
g657
sg544
F0.6633970217117222
sg545
g671
sg547
I67
sg548
F5.0
sbsI68
g0
(g538
g2
Ntp753
Rp754
(dp755
g542
g657
sg544
F-4.321912097997632
sg545
g671
sg547
I68
sg548
F4.861582170832558
sbsI69
g0
(g538
g2
Ntp756
Rp757
(dp758
g542
g657
sg544
F1.6853368788718956
sg545
g671
sg547
I69
sg548
F4.654650442063864
sbsI70
g0
(g538
g2
Ntp759
Rp760
(dp761
g542
g657
sg544
F0.0
sg545
g671
sg547
I70
sg548
F4.619270740552251
sbsI71
g0
(g538
g2
Ntp762
Rp763
(dp764
g542
g657
sg544
F0.04346135085938929
sg545
g671
sg547
I71
sg548
F4.896981398215536
sbsI72
g0
(g538
g2
Ntp765
Rp766
(dp767
g542
g657
sg544
F5.0
sg545
g671
sg547
I72
sg548
F4.953289739785711
sbsI73
g0
(g538
g2
Ntp768
Rp769
(dp770
g542
g657
sg544
F-2.5979056974740162
sg545
g671
sg547
I73
sg548
F4.776963396728372
sbsI74
g0
(g538
g2
Ntp771
Rp772
(dp773
g542
g657
sg544
F0.8933044976241358
sg545
g671
sg547
I74
sg548
F4.96907697113169
sbssS'node_order'
p774
(lp775
I40
aI64
aI66
aI60
aI73
aI45
aI65
aI41
aI67
aI72
aI42
aI43
aI63
aI70
aI71
aI44
aI46
aI62
aI47
aI48
aI49
aI50
aI51
aI68
aI69
aI74
aI52
aI53
aI54
aI56
aI57
aI58
aI61
aI59
aI55
asS'num_outputs'
p776
I4
sS'fitness'
p777
cnumpy.core.multiarray
scalar
p778
(cnumpy
dtype
p779
(S'f8'
p780
I0
I1
tp781
Rp782
(I3
S'<'
p783
NNNI-1
I-1
I0
tp784
bS'\xbdR\xf5\xdc%\xc7:\xc0'
p785
tp786
Rp787
sS'parent2_id'
p788
I40536
sS'config'
p789
g0
(cneat.config
Config
p790
g2
Ntp791
Rp792
(dp793
S'weight_stdev'
p794
F1.0
sS'disjoint_coefficient'
p795
F1.0
sS'prob_delete_node'
p796
F0.03
sS'initial_connection'
p797
S'unconnected'
p798
sS'stagnation_type'
p799
cneat.stagnation
DefaultStagnation
p800
sS'weight_mutation_power'
p801
F0.825
sS'excess_coefficient'
p802
F1.0
sS'compatibility_threshold'
p803
F3.0
sS'pop_size'
p804
I150
sS'weight_coefficient'
p805
F0.4
sS'feedforward'
p806
I01
sS'prob_add_node'
p807
F0.08
sS'genotype'
p808
g1
sS'type_config'
p809
(dp810
S'DefaultStagnation'
p811
(lp812
(S'species_fitness_func'
p813
S'mean'
p814
tp815
a(S'max_stagnation'
p816
S'15'
p817
tp818
asS'DefaultReproduction'
p819
(lp820
(S'elitism'
p821
S'1'
p822
tp823
a(S'survival_threshold'
p824
S'0.2'
p825
tp826
assS'prob_mutate_activation'
p827
F0.0
sS'conn_gene_type'
p828
g10
sS'connection_fraction'
p829
NsS'activation_functions'
p830
(lp831
g657
asS'response_mutation_power'
p832
F0.1
sS'prob_add_conn'
p833
F0.988
sS'checkpoint_time_interval'
p834
NsS'checkpoint_gen_interval'
p835
NsS'prob_mutate_bias'
p836
F0.05
sS'reproduction_type'
p837
cneat.reproduction
DefaultReproduction
p838
sS'node_gene_type'
p839
g538
sS'output_nodes'
p840
I4
sS'input_nodes'
p841
I36
sS'prob_replace_weight'
p842
F0.0245
sS'registry'
p843
(dp844
S'DefaultStagnation'
p845
g800
sS'DefaultReproduction'
p846
g838
ssS'hidden_nodes'
p847
I20
sS'report'
p848
I01
sS'prob_mutate_response'
p849
F0.1
sS'collect_statistics'
p850
I01
sS'max_weight'
p851
F5.0
sS'min_weight'
p852
F-5.0
sS'prob_toggle_link'
p853
F0.0138
sS'save_best'
p854
I00
sS'max_fitness_threshold'
p855
F0.95
sS'bias_mutation_power'
p856
F2.093
sS'prob_delete_conn'
p857
F0.14
sS'reset_on_extinction'
p858
I01
sS'prob_mutate_weight'
p859
F0.46
sbsg547
I41526
sb.