ccopy_reg
_reconstructor
p0
(cneat.genome
FFGenome
p1
c__builtin__
object
p2
Ntp3
Rp4
(dp5
S'species_id'
p6
I1
sS'conn_genes'
p7
(dp8
(I60
I69
tp9
g0
(cneat.genes
ConnectionGene
p10
g2
Ntp11
Rp12
(dp13
S'weight'
p14
F-0.5870460816925962
sS'enabled'
p15
I01
sS'out_node_id'
p16
I69
sS'in_node_id'
p17
I60
sbs(I20
I72
tp18
g0
(g10
g2
Ntp19
Rp20
(dp21
g14
F-2.37947319106295
sg15
I01
sg16
I72
sg17
I20
sbs(I29
I44
tp22
g0
(g10
g2
Ntp23
Rp24
(dp25
g14
F-5.0
sg15
I00
sg16
I44
sg17
I29
sbs(I50
I60
tp26
g0
(g10
g2
Ntp27
Rp28
(dp29
g14
F3.5543723636860447
sg15
I01
sg16
I60
sg17
I50
sbs(I80
I78
tp30
g0
(g10
g2
Ntp31
Rp32
(dp33
g14
F-5.0
sg15
I01
sg16
I78
sg17
I80
sbs(I3
I69
tp34
g0
(g10
g2
Ntp35
Rp36
(dp37
g14
F3.5033576566020357
sg15
I00
sg16
I69
sg17
I3
sbs(I5
I74
tp38
g0
(g10
g2
Ntp39
Rp40
(dp41
g14
F0.7740261390861477
sg15
I01
sg16
I74
sg17
I5
sbs(I6
I72
tp42
g0
(g10
g2
Ntp43
Rp44
(dp45
g14
F4.087858295730941
sg15
I00
sg16
I72
sg17
I6
sbs(I28
I75
tp46
g0
(g10
g2
Ntp47
Rp48
(dp49
g14
F1.6538013569573013
sg15
I00
sg16
I75
sg17
I28
sbs(I76
I77
tp50
g0
(g10
g2
Ntp51
Rp52
(dp53
g14
F-4.4190159769971356
sg15
I01
sg16
I77
sg17
I76
sbs(I5
I47
tp54
g0
(g10
g2
Ntp55
Rp56
(dp57
g14
F-2.1851040755011555
sg15
I00
sg16
I47
sg17
I5
sbs(I10
I41
tp58
g0
(g10
g2
Ntp59
Rp60
(dp61
g14
F2.679139306933033
sg15
I01
sg16
I41
sg17
I10
sbs(I4
I52
tp62
g0
(g10
g2
Ntp63
Rp64
(dp65
g14
F-2.5754650222880633
sg15
I01
sg16
I52
sg17
I4
sbs(I52
I78
tp66
g0
(g10
g2
Ntp67
Rp68
(dp69
g14
F-1.7944631948178216
sg15
I00
sg16
I78
sg17
I52
sbs(I58
I82
tp70
g0
(g10
g2
Ntp71
Rp72
(dp73
g14
F1.161879737716817
sg15
I00
sg16
I82
sg17
I58
sbs(I45
I65
tp74
g0
(g10
g2
Ntp75
Rp76
(dp77
g14
F-3.955258516491205
sg15
I00
sg16
I65
sg17
I45
sbs(I19
I50
tp78
g0
(g10
g2
Ntp79
Rp80
(dp81
g14
F-5.0
sg15
I00
sg16
I50
sg17
I19
sbs(I10
I75
tp82
g0
(g10
g2
Ntp83
Rp84
(dp85
g14
F-4.653243273531589
sg15
I01
sg16
I75
sg17
I10
sbs(I49
I73
tp86
g0
(g10
g2
Ntp87
Rp88
(dp89
g14
F1.029897283805898
sg15
I01
sg16
I73
sg17
I49
sbs(I2
I53
tp90
g0
(g10
g2
Ntp91
Rp92
(dp93
g14
F-3.4708856095602614
sg15
I01
sg16
I53
sg17
I2
sbs(I55
I87
tp94
g0
(g10
g2
Ntp95
Rp96
(dp97
g14
F-1.5514914574195913
sg15
I01
sg16
I87
sg17
I55
sbs(I21
I40
tp98
g0
(g10
g2
Ntp99
Rp100
(dp101
g14
F-5.0
sg15
I01
sg16
I40
sg17
I21
sbs(I28
I53
tp102
g0
(g10
g2
Ntp103
Rp104
(dp105
g14
F4.5750426704909115
sg15
I01
sg16
I53
sg17
I28
sbs(I17
I67
tp106
g0
(g10
g2
Ntp107
Rp108
(dp109
g14
F-3.453354352879028
sg15
I01
sg16
I67
sg17
I17
sbs(I55
I64
tp110
g0
(g10
g2
Ntp111
Rp112
(dp113
g14
F1.698724904683768
sg15
I00
sg16
I64
sg17
I55
sbs(I3
I61
tp114
g0
(g10
g2
Ntp115
Rp116
(dp117
g14
F-0.2535785951758801
sg15
I01
sg16
I61
sg17
I3
sbs(I17
I80
tp118
g0
(g10
g2
Ntp119
Rp120
(dp121
g14
F-2.312754314319204
sg15
I01
sg16
I80
sg17
I17
sbs(I61
I69
tp122
g0
(g10
g2
Ntp123
Rp124
(dp125
g14
F0.36708949486650533
sg15
I00
sg16
I69
sg17
I61
sbs(I18
I65
tp126
g0
(g10
g2
Ntp127
Rp128
(dp129
g14
F-2.629343110156296
sg15
I00
sg16
I65
sg17
I18
sbs(I44
I72
tp130
g0
(g10
g2
Ntp131
Rp132
(dp133
g14
F3.781611522553717
sg15
I00
sg16
I72
sg17
I44
sbs(I29
I82
tp134
g0
(g10
g2
Ntp135
Rp136
(dp137
g14
F-2.3702712761919744
sg15
I01
sg16
I82
sg17
I29
sbs(I90
I65
tp138
g0
(g10
g2
Ntp139
Rp140
(dp141
g14
F-2.5813901453876875
sg15
I01
sg16
I65
sg17
I90
sbs(I61
I76
tp142
g0
(g10
g2
Ntp143
Rp144
(dp145
g14
F-0.2958983077396278
sg15
I00
sg16
I76
sg17
I61
sbs(I44
I36
tp146
g0
(g10
g2
Ntp147
Rp148
(dp149
g14
F-4.599083865832699
sg15
I01
sg16
I36
sg17
I44
sbs(I44
I55
tp150
g0
(g10
g2
Ntp151
Rp152
(dp153
g14
F-1.279027984978559
sg15
I01
sg16
I55
sg17
I44
sbs(I89
I60
tp154
g0
(g10
g2
Ntp155
Rp156
(dp157
g14
F-3.0377619384507772
sg15
I01
sg16
I60
sg17
I89
sbs(I9
I45
tp158
g0
(g10
g2
Ntp159
Rp160
(dp161
g14
F2.8625198749631813
sg15
I01
sg16
I45
sg17
I9
sbs(I33
I56
tp162
g0
(g10
g2
Ntp163
Rp164
(dp165
g14
F-2.035397151072058
sg15
I00
sg16
I56
sg17
I33
sbs(I81
I41
tp166
g0
(g10
g2
Ntp167
Rp168
(dp169
g14
F-1.8973973673341393
sg15
I00
sg16
I41
sg17
I81
sbs(I15
I67
tp170
g0
(g10
g2
Ntp171
Rp172
(dp173
g14
F-2.151283563992022
sg15
I01
sg16
I67
sg17
I15
sbs(I50
I69
tp174
g0
(g10
g2
Ntp175
Rp176
(dp177
g14
F4.371130922015746
sg15
I00
sg16
I69
sg17
I50
sbs(I24
I46
tp178
g0
(g10
g2
Ntp179
Rp180
(dp181
g14
F2.352831662336824
sg15
I00
sg16
I46
sg17
I24
sbs(I20
I44
tp182
g0
(g10
g2
Ntp183
Rp184
(dp185
g14
F5.0
sg15
I01
sg16
I44
sg17
I20
sbs(I80
I85
tp186
g0
(g10
g2
Ntp187
Rp188
(dp189
g14
F-4.208784874071708
sg15
I00
sg16
I85
sg17
I80
sbs(I26
I49
tp190
g0
(g10
g2
Ntp191
Rp192
(dp193
g14
F2.2807453964649254
sg15
I00
sg16
I49
sg17
I26
sbs(I33
I74
tp194
g0
(g10
g2
Ntp195
Rp196
(dp197
g14
F2.1082963622748654
sg15
I01
sg16
I74
sg17
I33
sbs(I16
I37
tp198
g0
(g10
g2
Ntp199
Rp200
(dp201
g14
F-0.8881693086130902
sg15
I01
sg16
I37
sg17
I16
sbs(I86
I42
tp202
g0
(g10
g2
Ntp203
Rp204
(dp205
g14
F0.1584225313867993
sg15
I01
sg16
I42
sg17
I86
sbs(I16
I69
tp206
g0
(g10
g2
Ntp207
Rp208
(dp209
g14
F0.3323443892720337
sg15
I00
sg16
I69
sg17
I16
sbs(I56
I39
tp210
g0
(g10
g2
Ntp211
Rp212
(dp213
g14
F-0.7625339236947413
sg15
I00
sg16
I39
sg17
I56
sbs(I11
I72
tp214
g0
(g10
g2
Ntp215
Rp216
(dp217
g14
F0.3748782768741048
sg15
I01
sg16
I72
sg17
I11
sbs(I34
I53
tp218
g0
(g10
g2
Ntp219
Rp220
(dp221
g14
F0.03195124618120393
sg15
I01
sg16
I53
sg17
I34
sbs(I57
I38
tp222
g0
(g10
g2
Ntp223
Rp224
(dp225
g14
F-5.0
sg15
I01
sg16
I38
sg17
I57
sbs(I46
I88
tp226
g0
(g10
g2
Ntp227
Rp228
(dp229
g14
F4.845167627597603
sg15
I01
sg16
I88
sg17
I46
sbs(I84
I42
tp230
g0
(g10
g2
Ntp231
Rp232
(dp233
g14
F-2.0886260540632295
sg15
I00
sg16
I42
sg17
I84
sbs(I52
I69
tp234
g0
(g10
g2
Ntp235
Rp236
(dp237
g14
F2.708182176103289
sg15
I00
sg16
I69
sg17
I52
sbs(I67
I39
tp238
g0
(g10
g2
Ntp239
Rp240
(dp241
g14
F4.462498140354442
sg15
I00
sg16
I39
sg17
I67
sbs(I45
I75
tp242
g0
(g10
g2
Ntp243
Rp244
(dp245
g14
F-0.41328739740605736
sg15
I01
sg16
I75
sg17
I45
sbs(I12
I41
tp246
g0
(g10
g2
Ntp247
Rp248
(dp249
g14
F1.5612887695226514
sg15
I00
sg16
I41
sg17
I12
sbs(I42
I63
tp250
g0
(g10
g2
Ntp251
Rp252
(dp253
g14
F2.6918760939316506
sg15
I01
sg16
I63
sg17
I42
sbs(I6
I73
tp254
g0
(g10
g2
Ntp255
Rp256
(dp257
g14
F2.2732378255073753
sg15
I01
sg16
I73
sg17
I6
sbs(I62
I58
tp258
g0
(g10
g2
Ntp259
Rp260
(dp261
g14
F0.0804706190694423
sg15
I01
sg16
I58
sg17
I62
sbs(I53
I58
tp262
g0
(g10
g2
Ntp263
Rp264
(dp265
g14
F-3.2883075270177513
sg15
I00
sg16
I58
sg17
I53
sbs(I43
I62
tp266
g0
(g10
g2
Ntp267
Rp268
(dp269
g14
F2.3884422503389975
sg15
I00
sg16
I62
sg17
I43
sbs(I41
I73
tp270
g0
(g10
g2
Ntp271
Rp272
(dp273
g14
F-0.6823222688624603
sg15
I01
sg16
I73
sg17
I41
sbs(I30
I43
tp274
g0
(g10
g2
Ntp275
Rp276
(dp277
g14
F2.955780539381186
sg15
I01
sg16
I43
sg17
I30
sbs(I52
I79
tp278
g0
(g10
g2
Ntp279
Rp280
(dp281
g14
F-5.0
sg15
I01
sg16
I79
sg17
I52
sbs(I3
I78
tp282
g0
(g10
g2
Ntp283
Rp284
(dp285
g14
F3.6825314573866215
sg15
I01
sg16
I78
sg17
I3
sbs(I11
I45
tp286
g0
(g10
g2
Ntp287
Rp288
(dp289
g14
F-4.249176648437928
sg15
I00
sg16
I45
sg17
I11
sbs(I62
I83
tp290
g0
(g10
g2
Ntp291
Rp292
(dp293
g14
F5.0
sg15
I01
sg16
I83
sg17
I62
sbs(I46
I63
tp294
g0
(g10
g2
Ntp295
Rp296
(dp297
g14
F0.3827693119930793
sg15
I00
sg16
I63
sg17
I46
sbs(I12
I46
tp298
g0
(g10
g2
Ntp299
Rp300
(dp301
g14
F3.3467185529484427
sg15
I00
sg16
I46
sg17
I12
sbs(I51
I48
tp302
g0
(g10
g2
Ntp303
Rp304
(dp305
g14
F-0.6867422650523913
sg15
I01
sg16
I48
sg17
I51
sbs(I81
I64
tp306
g0
(g10
g2
Ntp307
Rp308
(dp309
g14
F0.12734690185243336
sg15
I01
sg16
I64
sg17
I81
sbs(I13
I47
tp310
g0
(g10
g2
Ntp311
Rp312
(dp313
g14
F-3.8343342749526226
sg15
I01
sg16
I47
sg17
I13
sbs(I87
I64
tp314
g0
(g10
g2
Ntp315
Rp316
(dp317
g14
F2.04707773990997
sg15
I00
sg16
I64
sg17
I87
sbs(I48
I71
tp318
g0
(g10
g2
Ntp319
Rp320
(dp321
g14
F-0.02300611011817999
sg15
I00
sg16
I71
sg17
I48
sbs(I81
I90
tp322
g0
(g10
g2
Ntp323
Rp324
(dp325
g14
F0.7145532784719618
sg15
I01
sg16
I90
sg17
I81
sbs(I30
I36
tp326
g0
(g10
g2
Ntp327
Rp328
(dp329
g14
F1.8205818305110328
sg15
I00
sg16
I36
sg17
I30
sbs(I28
I44
tp330
g0
(g10
g2
Ntp331
Rp332
(dp333
g14
F-2.2287596109146253
sg15
I01
sg16
I44
sg17
I28
sbs(I59
I60
tp334
g0
(g10
g2
Ntp335
Rp336
(dp337
g14
F1.3482400869174784
sg15
I00
sg16
I60
sg17
I59
sbs(I24
I74
tp338
g0
(g10
g2
Ntp339
Rp340
(dp341
g14
F0.5532159906107093
sg15
I00
sg16
I74
sg17
I24
sbs(I24
I63
tp342
g0
(g10
g2
Ntp343
Rp344
(dp345
g14
F1.7980108167890148
sg15
I01
sg16
I63
sg17
I24
sbs(I86
I40
tp346
g0
(g10
g2
Ntp347
Rp348
(dp349
g14
F1.835039099520896
sg15
I01
sg16
I40
sg17
I86
sbs(I5
I62
tp350
g0
(g10
g2
Ntp351
Rp352
(dp353
g14
F-3.213563015085692
sg15
I00
sg16
I62
sg17
I5
sbs(I17
I38
tp354
g0
(g10
g2
Ntp355
Rp356
(dp357
g14
F-0.493873270701676
sg15
I00
sg16
I38
sg17
I17
sbs(I2
I57
tp358
g0
(g10
g2
Ntp359
Rp360
(dp361
g14
F-2.699800821345998
sg15
I01
sg16
I57
sg17
I2
sbs(I11
I40
tp362
g0
(g10
g2
Ntp363
Rp364
(dp365
g14
F1.5145067276929052
sg15
I00
sg16
I40
sg17
I11
sbs(I40
I74
tp366
g0
(g10
g2
Ntp367
Rp368
(dp369
g14
F-0.04657608242812117
sg15
I01
sg16
I74
sg17
I40
sbs(I54
I78
tp370
g0
(g10
g2
Ntp371
Rp372
(dp373
g14
F-4.2833158164198215
sg15
I00
sg16
I78
sg17
I54
sbs(I55
I85
tp374
g0
(g10
g2
Ntp375
Rp376
(dp377
g14
F1.4842896268908248
sg15
I00
sg16
I85
sg17
I55
sbs(I60
I77
tp378
g0
(g10
g2
Ntp379
Rp380
(dp381
g14
F1.5750547826279424
sg15
I00
sg16
I77
sg17
I60
sbs(I19
I84
tp382
g0
(g10
g2
Ntp383
Rp384
(dp385
g14
F2.768584103634411
sg15
I00
sg16
I84
sg17
I19
sbs(I20
I78
tp386
g0
(g10
g2
Ntp387
Rp388
(dp389
g14
F3.5158731280518936
sg15
I00
sg16
I78
sg17
I20
sbs(I34
I60
tp390
g0
(g10
g2
Ntp391
Rp392
(dp393
g14
F-2.710368744079545
sg15
I00
sg16
I60
sg17
I34
sbs(I21
I86
tp394
g0
(g10
g2
Ntp395
Rp396
(dp397
g14
F5.0
sg15
I00
sg16
I86
sg17
I21
sbs(I80
I67
tp398
g0
(g10
g2
Ntp399
Rp400
(dp401
g14
F5.0
sg15
I01
sg16
I67
sg17
I80
sbs(I31
I49
tp402
g0
(g10
g2
Ntp403
Rp404
(dp405
g14
F0.0380585299783901
sg15
I00
sg16
I49
sg17
I31
sbs(I20
I48
tp406
g0
(g10
g2
Ntp407
Rp408
(dp409
g14
F3.969251604332616
sg15
I00
sg16
I48
sg17
I20
sbs(I85
I76
tp410
g0
(g10
g2
Ntp411
Rp412
(dp413
g14
F0.6533885206270368
sg15
I01
sg16
I76
sg17
I85
sbs(I71
I73
tp414
g0
(g10
g2
Ntp415
Rp416
(dp417
g14
F5.0
sg15
I01
sg16
I73
sg17
I71
sbs(I80
I39
tp418
g0
(g10
g2
Ntp419
Rp420
(dp421
g14
F-4.329890343264438
sg15
I01
sg16
I39
sg17
I80
sbs(I62
I70
tp422
g0
(g10
g2
Ntp423
Rp424
(dp425
g14
F-0.4197769092983141
sg15
I01
sg16
I70
sg17
I62
sbs(I78
I37
tp426
g0
(g10
g2
Ntp427
Rp428
(dp429
g14
F-5.0
sg15
I01
sg16
I37
sg17
I78
sbs(I34
I44
tp430
g0
(g10
g2
Ntp431
Rp432
(dp433
g14
F-0.06874855581642308
sg15
I00
sg16
I44
sg17
I34
sbs(I3
I71
tp434
g0
(g10
g2
Ntp435
Rp436
(dp437
g14
F4.068629267540452
sg15
I00
sg16
I71
sg17
I3
sbs(I10
I67
tp438
g0
(g10
g2
Ntp439
Rp440
(dp441
g14
F4.148092528315591
sg15
I01
sg16
I67
sg17
I10
sbs(I18
I54
tp442
g0
(g10
g2
Ntp443
Rp444
(dp445
g14
F5.0
sg15
I01
sg16
I54
sg17
I18
sbs(I31
I82
tp446
g0
(g10
g2
Ntp447
Rp448
(dp449
g14
F-2.4359442942437903
sg15
I01
sg16
I82
sg17
I31
sbs(I83
I58
tp450
g0
(g10
g2
Ntp451
Rp452
(dp453
g14
F4.199364519360184
sg15
I00
sg16
I58
sg17
I83
sbs(I55
I72
tp454
g0
(g10
g2
Ntp455
Rp456
(dp457
g14
F-2.5773129272491717
sg15
I01
sg16
I72
sg17
I55
sbs(I33
I37
tp458
g0
(g10
g2
Ntp459
Rp460
(dp461
g14
F5.0
sg15
I00
sg16
I37
sg17
I33
sbs(I28
I84
tp462
g0
(g10
g2
Ntp463
Rp464
(dp465
g14
F4.950300273736125
sg15
I00
sg16
I84
sg17
I28
sbs(I88
I63
tp466
g0
(g10
g2
Ntp467
Rp468
(dp469
g14
F-0.03071279152650841
sg15
I01
sg16
I63
sg17
I88
sbs(I44
I80
tp470
g0
(g10
g2
Ntp471
Rp472
(dp473
g14
F5.0
sg15
I01
sg16
I80
sg17
I44
sbs(I33
I42
tp474
g0
(g10
g2
Ntp475
Rp476
(dp477
g14
F-2.499073917080983
sg15
I00
sg16
I42
sg17
I33
sbs(I5
I55
tp478
g0
(g10
g2
Ntp479
Rp480
(dp481
g14
F-1.2952632623998328
sg15
I00
sg16
I55
sg17
I5
sbs(I11
I44
tp482
g0
(g10
g2
Ntp483
Rp484
(dp485
g14
F-5.0
sg15
I01
sg16
I44
sg17
I11
sbs(I20
I55
tp486
g0
(g10
g2
Ntp487
Rp488
(dp489
g14
F-1.008757829559433
sg15
I01
sg16
I55
sg17
I20
sbs(I52
I57
tp490
g0
(g10
g2
Ntp491
Rp492
(dp493
g14
F2.3815799635204233
sg15
I00
sg16
I57
sg17
I52
sbs(I35
I67
tp494
g0
(g10
g2
Ntp495
Rp496
(dp497
g14
F5.0
sg15
I00
sg16
I67
sg17
I35
sbs(I27
I57
tp498
g0
(g10
g2
Ntp499
Rp500
(dp501
g14
F-2.1121398969405805
sg15
I01
sg16
I57
sg17
I27
sbs(I16
I57
tp502
g0
(g10
g2
Ntp503
Rp504
(dp505
g14
F-3.028240288386984
sg15
I01
sg16
I57
sg17
I16
sbs(I59
I74
tp506
g0
(g10
g2
Ntp507
Rp508
(dp509
g14
F3.5575664856076097
sg15
I01
sg16
I74
sg17
I59
sbs(I2
I69
tp510
g0
(g10
g2
Ntp511
Rp512
(dp513
g14
F-2.2153829734506045
sg15
I01
sg16
I69
sg17
I2
sbs(I28
I45
tp514
g0
(g10
g2
Ntp515
Rp516
(dp517
g14
F-2.5318185657524306
sg15
I01
sg16
I45
sg17
I28
sbs(I64
I77
tp518
g0
(g10
g2
Ntp519
Rp520
(dp521
g14
F-0.8511413501827002
sg15
I00
sg16
I77
sg17
I64
sbs(I60
I68
tp522
g0
(g10
g2
Ntp523
Rp524
(dp525
g14
F3.662264660173659
sg15
I01
sg16
I68
sg17
I60
sbs(I87
I62
tp526
g0
(g10
g2
Ntp527
Rp528
(dp529
g14
F4.30118483156026
sg15
I01
sg16
I62
sg17
I87
sbs(I18
I74
tp530
g0
(g10
g2
Ntp531
Rp532
(dp533
g14
F-0.3266820557824318
sg15
I00
sg16
I74
sg17
I18
sbs(I27
I64
tp534
g0
(g10
g2
Ntp535
Rp536
(dp537
g14
F-4.368026985501493
sg15
I01
sg16
I64
sg17
I27
sbs(I0
I72
tp538
g0
(g10
g2
Ntp539
Rp540
(dp541
g14
F0.09756635778847263
sg15
I01
sg16
I72
sg17
I0
sbs(I41
I53
tp542
g0
(g10
g2
Ntp543
Rp544
(dp545
g14
F0.5402305445111091
sg15
I00
sg16
I53
sg17
I41
sbs(I13
I36
tp546
g0
(g10
g2
Ntp547
Rp548
(dp549
g14
F1.0119514893680468
sg15
I00
sg16
I36
sg17
I13
sbs(I3
I41
tp550
g0
(g10
g2
Ntp551
Rp552
(dp553
g14
F-1.265530407826673
sg15
I01
sg16
I41
sg17
I3
sbs(I4
I75
tp554
g0
(g10
g2
Ntp555
Rp556
(dp557
g14
F-0.24166503195949504
sg15
I00
sg16
I75
sg17
I4
sbs(I55
I65
tp558
g0
(g10
g2
Ntp559
Rp560
(dp561
g14
F-1.7910104843831718
sg15
I01
sg16
I65
sg17
I55
sbs(I15
I56
tp562
g0
(g10
g2
Ntp563
Rp564
(dp565
g14
F4.1826871323942605
sg15
I00
sg16
I56
sg17
I15
sbs(I5
I48
tp566
g0
(g10
g2
Ntp567
Rp568
(dp569
g14
F1.6435362088446035
sg15
I01
sg16
I48
sg17
I5
sbs(I50
I78
tp570
g0
(g10
g2
Ntp571
Rp572
(dp573
g14
F-1.6557403575331713
sg15
I00
sg16
I78
sg17
I50
sbs(I6
I63
tp574
g0
(g10
g2
Ntp575
Rp576
(dp577
g14
F-3.5350078075376725
sg15
I01
sg16
I63
sg17
I6
sbs(I29
I64
tp578
g0
(g10
g2
Ntp579
Rp580
(dp581
g14
F5.0
sg15
I01
sg16
I64
sg17
I29
sbs(I81
I65
tp582
g0
(g10
g2
Ntp583
Rp584
(dp585
g14
F0.26485655166780553
sg15
I00
sg16
I65
sg17
I81
sbs(I35
I72
tp586
g0
(g10
g2
Ntp587
Rp588
(dp589
g14
F-1.0887544863746292
sg15
I00
sg16
I72
sg17
I35
sbs(I82
I70
tp590
g0
(g10
g2
Ntp591
Rp592
(dp593
g14
F1.8447376989442903
sg15
I00
sg16
I70
sg17
I82
sbs(I53
I74
tp594
g0
(g10
g2
Ntp595
Rp596
(dp597
g14
F-2.1274908983681513
sg15
I00
sg16
I74
sg17
I53
sbs(I14
I77
tp598
g0
(g10
g2
Ntp599
Rp600
(dp601
g14
F-1.188428913248298
sg15
I01
sg16
I77
sg17
I14
sbs(I34
I89
tp602
g0
(g10
g2
Ntp603
Rp604
(dp605
g14
F2.0255407084663157
sg15
I01
sg16
I89
sg17
I34
sbs(I35
I71
tp606
g0
(g10
g2
Ntp607
Rp608
(dp609
g14
F-2.54103713421558
sg15
I01
sg16
I71
sg17
I35
sbs(I3
I81
tp610
g0
(g10
g2
Ntp611
Rp612
(dp613
g14
F3.5680474274648923
sg15
I00
sg16
I81
sg17
I3
sbs(I20
I81
tp614
g0
(g10
g2
Ntp615
Rp616
(dp617
g14
F3.200960931860236
sg15
I00
sg16
I81
sg17
I20
sbs(I11
I74
tp618
g0
(g10
g2
Ntp619
Rp620
(dp621
g14
F-4.610623192984934
sg15
I01
sg16
I74
sg17
I11
sbs(I5
I51
tp622
g0
(g10
g2
Ntp623
Rp624
(dp625
g14
F-1.5063173366788893
sg15
I01
sg16
I51
sg17
I5
sbs(I19
I56
tp626
g0
(g10
g2
Ntp627
Rp628
(dp629
g14
F5.0
sg15
I01
sg16
I56
sg17
I19
sbs(I1
I69
tp630
g0
(g10
g2
Ntp631
Rp632
(dp633
g14
F-4.932175057259312
sg15
I01
sg16
I69
sg17
I1
sbs(I24
I45
tp634
g0
(g10
g2
Ntp635
Rp636
(dp637
g14
F-2.665645945629049
sg15
I00
sg16
I45
sg17
I24
sbs(I48
I53
tp638
g0
(g10
g2
Ntp639
Rp640
(dp641
g14
F1.0504699429681068
sg15
I01
sg16
I53
sg17
I48
sbs(I58
I70
tp642
g0
(g10
g2
Ntp643
Rp644
(dp645
g14
F0.5777048815671568
sg15
I00
sg16
I70
sg17
I58
sbssS'parent1_id'
p646
I68034
sS'num_inputs'
p647
I36
sS'node_genes'
p648
(dp649
I0
g0
(cneat.genes
NodeGene
p650
g2
Ntp651
Rp652
(dp653
S'activation_type'
p654
S'sigmoid'
p655
sS'bias'
p656
F0.0
sS'type'
p657
S'INPUT'
p658
sS'ID'
p659
I0
sS'response'
p660
F4.924273
sbsI1
g0
(g650
g2
Ntp661
Rp662
(dp663
g654
g655
sg656
F0.0
sg657
g658
sg659
I1
sg660
F4.924273
sbsI2
g0
(g650
g2
Ntp664
Rp665
(dp666
g654
g655
sg656
F0.0
sg657
g658
sg659
I2
sg660
F4.924273
sbsI3
g0
(g650
g2
Ntp667
Rp668
(dp669
g654
g655
sg656
F0.0
sg657
g658
sg659
I3
sg660
F4.924273
sbsI4
g0
(g650
g2
Ntp670
Rp671
(dp672
g654
g655
sg656
F0.0
sg657
g658
sg659
I4
sg660
F4.924273
sbsI5
g0
(g650
g2
Ntp673
Rp674
(dp675
g654
g655
sg656
F0.0
sg657
g658
sg659
I5
sg660
F4.924273
sbsI6
g0
(g650
g2
Ntp676
Rp677
(dp678
g654
g655
sg656
F0.0
sg657
g658
sg659
I6
sg660
F4.924273
sbsI7
g0
(g650
g2
Ntp679
Rp680
(dp681
g654
g655
sg656
F0.0
sg657
g658
sg659
I7
sg660
F4.924273
sbsI8
g0
(g650
g2
Ntp682
Rp683
(dp684
g654
g655
sg656
F0.0
sg657
g658
sg659
I8
sg660
F4.924273
sbsI9
g0
(g650
g2
Ntp685
Rp686
(dp687
g654
g655
sg656
F0.0
sg657
g658
sg659
I9
sg660
F4.924273
sbsI10
g0
(g650
g2
Ntp688
Rp689
(dp690
g654
g655
sg656
F0.0
sg657
g658
sg659
I10
sg660
F4.924273
sbsI11
g0
(g650
g2
Ntp691
Rp692
(dp693
g654
g655
sg656
F0.0
sg657
g658
sg659
I11
sg660
F4.924273
sbsI12
g0
(g650
g2
Ntp694
Rp695
(dp696
g654
g655
sg656
F0.0
sg657
g658
sg659
I12
sg660
F4.924273
sbsI13
g0
(g650
g2
Ntp697
Rp698
(dp699
g654
g655
sg656
F0.0
sg657
g658
sg659
I13
sg660
F4.924273
sbsI14
g0
(g650
g2
Ntp700
Rp701
(dp702
g654
g655
sg656
F0.0
sg657
g658
sg659
I14
sg660
F4.924273
sbsI15
g0
(g650
g2
Ntp703
Rp704
(dp705
g654
g655
sg656
F0.0
sg657
g658
sg659
I15
sg660
F4.924273
sbsI16
g0
(g650
g2
Ntp706
Rp707
(dp708
g654
g655
sg656
F0.0
sg657
g658
sg659
I16
sg660
F4.924273
sbsI17
g0
(g650
g2
Ntp709
Rp710
(dp711
g654
g655
sg656
F0.0
sg657
g658
sg659
I17
sg660
F4.924273
sbsI18
g0
(g650
g2
Ntp712
Rp713
(dp714
g654
g655
sg656
F0.0
sg657
g658
sg659
I18
sg660
F4.924273
sbsI19
g0
(g650
g2
Ntp715
Rp716
(dp717
g654
g655
sg656
F0.0
sg657
g658
sg659
I19
sg660
F4.924273
sbsI20
g0
(g650
g2
Ntp718
Rp719
(dp720
g654
g655
sg656
F0.0
sg657
g658
sg659
I20
sg660
F4.924273
sbsI21
g0
(g650
g2
Ntp721
Rp722
(dp723
g654
g655
sg656
F0.0
sg657
g658
sg659
I21
sg660
F4.924273
sbsI22
g0
(g650
g2
Ntp724
Rp725
(dp726
g654
g655
sg656
F0.0
sg657
g658
sg659
I22
sg660
F4.924273
sbsI23
g0
(g650
g2
Ntp727
Rp728
(dp729
g654
g655
sg656
F0.0
sg657
g658
sg659
I23
sg660
F4.924273
sbsI24
g0
(g650
g2
Ntp730
Rp731
(dp732
g654
g655
sg656
F0.0
sg657
g658
sg659
I24
sg660
F4.924273
sbsI25
g0
(g650
g2
Ntp733
Rp734
(dp735
g654
g655
sg656
F0.0
sg657
g658
sg659
I25
sg660
F4.924273
sbsI26
g0
(g650
g2
Ntp736
Rp737
(dp738
g654
g655
sg656
F0.0
sg657
g658
sg659
I26
sg660
F4.924273
sbsI27
g0
(g650
g2
Ntp739
Rp740
(dp741
g654
g655
sg656
F0.0
sg657
g658
sg659
I27
sg660
F4.924273
sbsI28
g0
(g650
g2
Ntp742
Rp743
(dp744
g654
g655
sg656
F0.0
sg657
g658
sg659
I28
sg660
F4.924273
sbsI29
g0
(g650
g2
Ntp745
Rp746
(dp747
g654
g655
sg656
F0.0
sg657
g658
sg659
I29
sg660
F4.924273
sbsI30
g0
(g650
g2
Ntp748
Rp749
(dp750
g654
g655
sg656
F0.0
sg657
g658
sg659
I30
sg660
F4.924273
sbsI31
g0
(g650
g2
Ntp751
Rp752
(dp753
g654
g655
sg656
F0.0
sg657
g658
sg659
I31
sg660
F4.924273
sbsI32
g0
(g650
g2
Ntp754
Rp755
(dp756
g654
g655
sg656
F0.0
sg657
g658
sg659
I32
sg660
F4.924273
sbsI33
g0
(g650
g2
Ntp757
Rp758
(dp759
g654
g655
sg656
F0.0
sg657
g658
sg659
I33
sg660
F4.924273
sbsI34
g0
(g650
g2
Ntp760
Rp761
(dp762
g654
g655
sg656
F0.0
sg657
g658
sg659
I34
sg660
F4.924273
sbsI35
g0
(g650
g2
Ntp763
Rp764
(dp765
g654
g655
sg656
F0.0
sg657
g658
sg659
I35
sg660
F4.924273
sbsI36
g0
(g650
g2
Ntp766
Rp767
(dp768
g654
S'sigmoid'
p769
sg656
F-0.9861524449171929
sg657
S'OUTPUT'
p770
sg659
I36
sg660
F5.0
sbsI37
g0
(g650
g2
Ntp771
Rp772
(dp773
g654
g769
sg656
F-1.5171561073656372
sg657
g770
sg659
I37
sg660
F4.028346772371762
sbsI38
g0
(g650
g2
Ntp774
Rp775
(dp776
g654
g769
sg656
F-0.08918475296181907
sg657
g770
sg659
I38
sg660
F5.0
sbsI39
g0
(g650
g2
Ntp777
Rp778
(dp779
g654
g769
sg656
F-0.638936460017057
sg657
g770
sg659
I39
sg660
F4.435845612589255
sbsI40
g0
(g650
g2
Ntp780
Rp781
(dp782
g654
g769
sg656
F2.1210490971489335
sg657
S'HIDDEN'
p783
sg659
I40
sg660
F5.0
sbsI41
g0
(g650
g2
Ntp784
Rp785
(dp786
g654
g769
sg656
F2.3614123475178124
sg657
g783
sg659
I41
sg660
F4.829636911564498
sbsI42
g0
(g650
g2
Ntp787
Rp788
(dp789
g654
g769
sg656
F0.1828733078167757
sg657
g783
sg659
I42
sg660
F4.532553463298772
sbsI43
g0
(g650
g2
Ntp790
Rp791
(dp792
g654
g769
sg656
F0.8592906955157549
sg657
g783
sg659
I43
sg660
F4.701307466762843
sbsI44
g0
(g650
g2
Ntp793
Rp794
(dp795
g654
g769
sg656
F-5.0
sg657
g783
sg659
I44
sg660
F4.737757234097123
sbsI45
g0
(g650
g2
Ntp796
Rp797
(dp798
g654
g769
sg656
F1.719878119943675
sg657
g783
sg659
I45
sg660
F4.913359328294662
sbsI46
g0
(g650
g2
Ntp799
Rp800
(dp801
g654
g769
sg656
F-4.302585990976439
sg657
g783
sg659
I46
sg660
F4.759398093470886
sbsI47
g0
(g650
g2
Ntp802
Rp803
(dp804
g654
g769
sg656
F-4.666685114973324
sg657
g783
sg659
I47
sg660
F4.900472545628663
sbsI48
g0
(g650
g2
Ntp805
Rp806
(dp807
g654
g769
sg656
F1.3653386275793002
sg657
g783
sg659
I48
sg660
F4.894355542400141
sbsI49
g0
(g650
g2
Ntp808
Rp809
(dp810
g654
g769
sg656
F-5.0
sg657
g783
sg659
I49
sg660
F4.5726111764810025
sbsI50
g0
(g650
g2
Ntp811
Rp812
(dp813
g654
g769
sg656
F-5.0
sg657
g783
sg659
I50
sg660
F4.079988253556623
sbsI51
g0
(g650
g2
Ntp814
Rp815
(dp816
g654
g769
sg656
F0.0
sg657
g783
sg659
I51
sg660
F4.764674862307883
sbsI52
g0
(g650
g2
Ntp817
Rp818
(dp819
g654
g769
sg656
F-2.574637073916358
sg657
g783
sg659
I52
sg660
F4.129202767513413
sbsI53
g0
(g650
g2
Ntp820
Rp821
(dp822
g654
g769
sg656
F3.530062586303326
sg657
g783
sg659
I53
sg660
F4.924273
sbsI54
g0
(g650
g2
Ntp823
Rp824
(dp825
g654
g769
sg656
F-5.0
sg657
g783
sg659
I54
sg660
F4.248648394406984
sbsI55
g0
(g650
g2
Ntp826
Rp827
(dp828
g654
g769
sg656
F-1.7233118734080966
sg657
g783
sg659
I55
sg660
F4.8807457604608295
sbsI56
g0
(g650
g2
Ntp829
Rp830
(dp831
g654
g769
sg656
F-1.5093618709707308
sg657
g783
sg659
I56
sg660
F4.533561246445071
sbsI57
g0
(g650
g2
Ntp832
Rp833
(dp834
g654
g769
sg656
F2.3360907869720626
sg657
g783
sg659
I57
sg660
F4.643797084779683
sbsI58
g0
(g650
g2
Ntp835
Rp836
(dp837
g654
g769
sg656
F4.245719383952219
sg657
g783
sg659
I58
sg660
F4.3719041147492375
sbsI59
g0
(g650
g2
Ntp838
Rp839
(dp840
g654
g769
sg656
F0.5517925508192592
sg657
g783
sg659
I59
sg660
F4.91400726906524
sbsI60
g0
(g650
g2
Ntp841
Rp842
(dp843
g654
g769
sg656
F-5.0
sg657
g783
sg659
I60
sg660
F4.852268140364851
sbsI61
g0
(g650
g2
Ntp844
Rp845
(dp846
g654
g769
sg656
F-0.7804554205222576
sg657
g783
sg659
I61
sg660
F4.702921190003189
sbsI62
g0
(g650
g2
Ntp847
Rp848
(dp849
g654
g769
sg656
F-5.0
sg657
g783
sg659
I62
sg660
F4.572414346117798
sbsI63
g0
(g650
g2
Ntp850
Rp851
(dp852
g654
g769
sg656
F5.0
sg657
g783
sg659
I63
sg660
F4.968803851190639
sbsI64
g0
(g650
g2
Ntp853
Rp854
(dp855
g654
g769
sg656
F-2.895425784257694
sg657
g783
sg659
I64
sg660
F4.756340404458699
sbsI65
g0
(g650
g2
Ntp856
Rp857
(dp858
g654
g769
sg656
F2.7833821992000445
sg657
g783
sg659
I65
sg660
F4.9540736615886125
sbsI66
g0
(g650
g2
Ntp859
Rp860
(dp861
g654
g769
sg656
F-4.696131641105173
sg657
g783
sg659
I66
sg660
F4.230205679592318
sbsI67
g0
(g650
g2
Ntp862
Rp863
(dp864
g654
g769
sg656
F-5.0
sg657
g783
sg659
I67
sg660
F4.281744136254075
sbsI68
g0
(g650
g2
Ntp865
Rp866
(dp867
g654
g769
sg656
F-4.839430109596842
sg657
g783
sg659
I68
sg660
F4.912467800525662
sbsI69
g0
(g650
g2
Ntp868
Rp869
(dp870
g654
g769
sg656
F3.4816146388661515
sg657
g783
sg659
I69
sg660
F3.9212869045367604
sbsI70
g0
(g650
g2
Ntp871
Rp872
(dp873
g654
g769
sg656
F2.69217167237889
sg657
g783
sg659
I70
sg660
F4.350832930459449
sbsI71
g0
(g650
g2
Ntp874
Rp875
(dp876
g654
g769
sg656
F-3.7468282669793727
sg657
g783
sg659
I71
sg660
F4.520531932828168
sbsI72
g0
(g650
g2
Ntp877
Rp878
(dp879
g654
g769
sg656
F-3.336963984313661
sg657
g783
sg659
I72
sg660
F3.9793964174238914
sbsI73
g0
(g650
g2
Ntp880
Rp881
(dp882
g654
g769
sg656
F1.3553374951698463
sg657
g783
sg659
I73
sg660
F4.517501754504485
sbsI74
g0
(g650
g2
Ntp883
Rp884
(dp885
g654
g769
sg656
F-3.306999138437622
sg657
g783
sg659
I74
sg660
F4.395150548121157
sbsI75
g0
(g650
g2
Ntp886
Rp887
(dp888
g654
g769
sg656
F-2.414832171518447
sg657
g783
sg659
I75
sg660
F4.728906190701703
sbsI76
g0
(g650
g2
Ntp889
Rp890
(dp891
g654
g769
sg656
F-4.03318000403378
sg657
g783
sg659
I76
sg660
F4.52420254407698
sbsI77
g0
(g650
g2
Ntp892
Rp893
(dp894
g654
g769
sg656
F-0.9551569868313319
sg657
g783
sg659
I77
sg660
F4.454140365183452
sbsI78
g0
(g650
g2
Ntp895
Rp896
(dp897
g654
g769
sg656
F-1.2359089633670046
sg657
g783
sg659
I78
sg660
F3.392021231226324
sbsI79
g0
(g650
g2
Ntp898
Rp899
(dp900
g654
g769
sg656
F-2.934716067367079
sg657
g783
sg659
I79
sg660
F4.7494673706033455
sbsI80
g0
(g650
g2
Ntp901
Rp902
(dp903
g654
g769
sg656
F5.0
sg657
g783
sg659
I80
sg660
F4.076551638259386
sbsI81
g0
(g650
g2
Ntp904
Rp905
(dp906
g654
g769
sg656
F2.700943045674442
sg657
g783
sg659
I81
sg660
F4.921244604363498
sbsI82
g0
(g650
g2
Ntp907
Rp908
(dp909
g654
g769
sg656
F-0.32725641564574826
sg657
g783
sg659
I82
sg660
F4.1224971978259815
sbsI83
g0
(g650
g2
Ntp910
Rp911
(dp912
g654
g769
sg656
F1.6219171216733956
sg657
g783
sg659
I83
sg660
F4.9752413397610225
sbsI84
g0
(g650
g2
Ntp913
Rp914
(dp915
g654
g769
sg656
F3.2600580430747987
sg657
g783
sg659
I84
sg660
F4.632718463166839
sbsI85
g0
(g650
g2
Ntp916
Rp917
(dp918
g654
g769
sg656
F-1.0303430780205507
sg657
g783
sg659
I85
sg660
F4.972907021929807
sbsI86
g0
(g650
g2
Ntp919
Rp920
(dp921
g654
g769
sg656
F1.15930028615713
sg657
g783
sg659
I86
sg660
F4.587216421336513
sbsI87
g0
(g650
g2
Ntp922
Rp923
(dp924
g654
g769
sg656
F5.0
sg657
g783
sg659
I87
sg660
F4.755523584876446
sbsI88
g0
(g650
g2
Ntp925
Rp926
(dp927
g654
g769
sg656
F-1.6963264698347758
sg657
g783
sg659
I88
sg660
F5.0
sbsI89
g0
(g650
g2
Ntp928
Rp929
(dp930
g654
g769
sg656
F0.0
sg657
g783
sg659
I89
sg660
F5.0
sbsI90
g0
(g650
g2
Ntp931
Rp932
(dp933
g654
g769
sg656
F0.0
sg657
g783
sg659
I90
sg660
F4.924273
sbssS'node_order'
p934
(lp935
I86
aI40
aI81
aI51
aI41
aI43
aI44
aI45
aI90
aI80
aI46
aI88
aI89
aI47
aI48
aI49
aI50
aI52
aI53
aI54
aI61
aI84
aI55
aI87
aI57
aI42
aI56
aI59
aI67
aI60
aI62
aI63
aI64
aI83
aI65
aI58
aI66
aI82
aI68
aI69
aI70
aI71
aI72
aI73
aI74
aI85
aI75
aI76
aI77
aI78
aI79
asS'num_outputs'
p936
I4
sS'fitness'
p937
cnumpy.core.multiarray
scalar
p938
(cnumpy
dtype
p939
(S'f8'
p940
I0
I1
tp941
Rp942
(I3
S'<'
p943
NNNI-1
I-1
I0
tp944
bS'\xb4#\x167\xa4>B\xc0'
p945
tp946
Rp947
sS'parent2_id'
p948
I68234
sS'config'
p949
g0
(cneat.config
Config
p950
g2
Ntp951
Rp952
(dp953
S'weight_stdev'
p954
F1.0
sS'disjoint_coefficient'
p955
F1.0
sS'prob_delete_node'
p956
F0.03
sS'initial_connection'
p957
S'unconnected'
p958
sS'stagnation_type'
p959
cneat.stagnation
DefaultStagnation
p960
sS'weight_mutation_power'
p961
F0.82
sS'excess_coefficient'
p962
F1.0
sS'compatibility_threshold'
p963
F3.0
sS'pop_size'
p964
I150
sS'weight_coefficient'
p965
F0.4
sS'feedforward'
p966
I01
sS'prob_add_node'
p967
F0.08
sS'genotype'
p968
g1
sS'type_config'
p969
(dp970
S'DefaultStagnation'
p971
(lp972
(S'species_fitness_func'
p973
S'mean'
p974
tp975
a(S'max_stagnation'
p976
S'15'
p977
tp978
asS'DefaultReproduction'
p979
(lp980
(S'elitism'
p981
S'1'
p982
tp983
a(S'survival_threshold'
p984
S'0.2'
p985
tp986
assS'prob_mutate_activation'
p987
F0.0
sS'conn_gene_type'
p988
g10
sS'connection_fraction'
p989
NsS'activation_functions'
p990
(lp991
g769
asS'response_mutation_power'
p992
F0.1
sS'prob_add_conn'
p993
F0.98
sS'checkpoint_time_interval'
p994
NsS'checkpoint_gen_interval'
p995
NsS'prob_mutate_bias'
p996
F0.05
sS'reproduction_type'
p997
cneat.reproduction
DefaultReproduction
p998
sS'node_gene_type'
p999
g650
sS'output_nodes'
p1000
I4
sS'input_nodes'
p1001
I36
sS'prob_replace_weight'
p1002
F0.025
sS'registry'
p1003
(dp1004
S'DefaultStagnation'
p1005
g960
sS'DefaultReproduction'
p1006
g998
ssS'hidden_nodes'
p1007
I40
sS'report'
p1008
I01
sS'prob_mutate_response'
p1009
F0.1
sS'collect_statistics'
p1010
I01
sS'max_weight'
p1011
F5.0
sS'min_weight'
p1012
F-5.0
sS'prob_toggle_link'
p1013
F0.01
sS'save_best'
p1014
I00
sS'max_fitness_threshold'
p1015
F0.0
sS'bias_mutation_power'
p1016
F2.093
sS'prob_delete_conn'
p1017
F0.15
sS'reset_on_extinction'
p1018
I01
sS'prob_mutate_weight'
p1019
F0.45
sbsg659
I68246
sb.