ccopy_reg
_reconstructor
p0
(cneat.genome
FFGenome
p1
c__builtin__
object
p2
Ntp3
Rp4
(dp5
S'species_id'
p6
I1
sS'conn_genes'
p7
(dp8
(I16
I37
tp9
g0
(cneat.genes
ConnectionGene
p10
g2
Ntp11
Rp12
(dp13
S'weight'
p14
F-0.06562163257601278
sS'enabled'
p15
I01
sS'out_node_id'
p16
I37
sS'in_node_id'
p17
I16
sbs(I10
I49
tp18
g0
(g10
g2
Ntp19
Rp20
(dp21
g14
F-0.2024313009256027
sg15
I00
sg16
I49
sg17
I10
sbs(I10
I77
tp22
g0
(g10
g2
Ntp23
Rp24
(dp25
g14
F1.6659631777282766
sg15
I00
sg16
I77
sg17
I10
sbs(I6
I76
tp26
g0
(g10
g2
Ntp27
Rp28
(dp29
g14
F0.9890102298664735
sg15
I01
sg16
I76
sg17
I6
sbs(I32
I67
tp30
g0
(g10
g2
Ntp31
Rp32
(dp33
g14
F-0.5141680970240445
sg15
I01
sg16
I67
sg17
I32
sbs(I6
I37
tp34
g0
(g10
g2
Ntp35
Rp36
(dp37
g14
F-0.21638006421103848
sg15
I01
sg16
I37
sg17
I6
sbssS'parent1_id'
p38
I1231
sS'num_inputs'
p39
I36
sS'node_genes'
p40
(dp41
I0
g0
(cneat.genes
NodeGene
p42
g2
Ntp43
Rp44
(dp45
S'activation_type'
p46
S'sigmoid'
p47
sS'bias'
p48
F0.0
sS'type'
p49
S'INPUT'
p50
sS'ID'
p51
I0
sS'response'
p52
F4.924273
sbsI1
g0
(g42
g2
Ntp53
Rp54
(dp55
g46
g47
sg48
F0.0
sg49
g50
sg51
I1
sg52
F4.924273
sbsI2
g0
(g42
g2
Ntp56
Rp57
(dp58
g46
g47
sg48
F0.0
sg49
g50
sg51
I2
sg52
F4.924273
sbsI3
g0
(g42
g2
Ntp59
Rp60
(dp61
g46
g47
sg48
F0.0
sg49
g50
sg51
I3
sg52
F4.924273
sbsI4
g0
(g42
g2
Ntp62
Rp63
(dp64
g46
g47
sg48
F0.0
sg49
g50
sg51
I4
sg52
F4.924273
sbsI5
g0
(g42
g2
Ntp65
Rp66
(dp67
g46
g47
sg48
F0.0
sg49
g50
sg51
I5
sg52
F4.924273
sbsI6
g0
(g42
g2
Ntp68
Rp69
(dp70
g46
g47
sg48
F0.0
sg49
g50
sg51
I6
sg52
F4.924273
sbsI7
g0
(g42
g2
Ntp71
Rp72
(dp73
g46
g47
sg48
F0.0
sg49
g50
sg51
I7
sg52
F4.924273
sbsI8
g0
(g42
g2
Ntp74
Rp75
(dp76
g46
g47
sg48
F0.0
sg49
g50
sg51
I8
sg52
F4.924273
sbsI9
g0
(g42
g2
Ntp77
Rp78
(dp79
g46
g47
sg48
F0.0
sg49
g50
sg51
I9
sg52
F4.924273
sbsI10
g0
(g42
g2
Ntp80
Rp81
(dp82
g46
g47
sg48
F0.0
sg49
g50
sg51
I10
sg52
F4.924273
sbsI11
g0
(g42
g2
Ntp83
Rp84
(dp85
g46
g47
sg48
F0.0
sg49
g50
sg51
I11
sg52
F4.924273
sbsI12
g0
(g42
g2
Ntp86
Rp87
(dp88
g46
g47
sg48
F0.0
sg49
g50
sg51
I12
sg52
F4.924273
sbsI13
g0
(g42
g2
Ntp89
Rp90
(dp91
g46
g47
sg48
F0.0
sg49
g50
sg51
I13
sg52
F4.924273
sbsI14
g0
(g42
g2
Ntp92
Rp93
(dp94
g46
g47
sg48
F0.0
sg49
g50
sg51
I14
sg52
F4.924273
sbsI15
g0
(g42
g2
Ntp95
Rp96
(dp97
g46
g47
sg48
F0.0
sg49
g50
sg51
I15
sg52
F4.924273
sbsI16
g0
(g42
g2
Ntp98
Rp99
(dp100
g46
g47
sg48
F0.0
sg49
g50
sg51
I16
sg52
F4.924273
sbsI17
g0
(g42
g2
Ntp101
Rp102
(dp103
g46
g47
sg48
F0.0
sg49
g50
sg51
I17
sg52
F4.924273
sbsI18
g0
(g42
g2
Ntp104
Rp105
(dp106
g46
g47
sg48
F0.0
sg49
g50
sg51
I18
sg52
F4.924273
sbsI19
g0
(g42
g2
Ntp107
Rp108
(dp109
g46
g47
sg48
F0.0
sg49
g50
sg51
I19
sg52
F4.924273
sbsI20
g0
(g42
g2
Ntp110
Rp111
(dp112
g46
g47
sg48
F0.0
sg49
g50
sg51
I20
sg52
F4.924273
sbsI21
g0
(g42
g2
Ntp113
Rp114
(dp115
g46
g47
sg48
F0.0
sg49
g50
sg51
I21
sg52
F4.924273
sbsI22
g0
(g42
g2
Ntp116
Rp117
(dp118
g46
g47
sg48
F0.0
sg49
g50
sg51
I22
sg52
F4.924273
sbsI23
g0
(g42
g2
Ntp119
Rp120
(dp121
g46
g47
sg48
F0.0
sg49
g50
sg51
I23
sg52
F4.924273
sbsI24
g0
(g42
g2
Ntp122
Rp123
(dp124
g46
g47
sg48
F0.0
sg49
g50
sg51
I24
sg52
F4.924273
sbsI25
g0
(g42
g2
Ntp125
Rp126
(dp127
g46
g47
sg48
F0.0
sg49
g50
sg51
I25
sg52
F4.924273
sbsI26
g0
(g42
g2
Ntp128
Rp129
(dp130
g46
g47
sg48
F0.0
sg49
g50
sg51
I26
sg52
F4.924273
sbsI27
g0
(g42
g2
Ntp131
Rp132
(dp133
g46
g47
sg48
F0.0
sg49
g50
sg51
I27
sg52
F4.924273
sbsI28
g0
(g42
g2
Ntp134
Rp135
(dp136
g46
g47
sg48
F0.0
sg49
g50
sg51
I28
sg52
F4.924273
sbsI29
g0
(g42
g2
Ntp137
Rp138
(dp139
g46
g47
sg48
F0.0
sg49
g50
sg51
I29
sg52
F4.924273
sbsI30
g0
(g42
g2
Ntp140
Rp141
(dp142
g46
g47
sg48
F0.0
sg49
g50
sg51
I30
sg52
F4.924273
sbsI31
g0
(g42
g2
Ntp143
Rp144
(dp145
g46
g47
sg48
F0.0
sg49
g50
sg51
I31
sg52
F4.924273
sbsI32
g0
(g42
g2
Ntp146
Rp147
(dp148
g46
g47
sg48
F0.0
sg49
g50
sg51
I32
sg52
F4.924273
sbsI33
g0
(g42
g2
Ntp149
Rp150
(dp151
g46
g47
sg48
F0.0
sg49
g50
sg51
I33
sg52
F4.924273
sbsI34
g0
(g42
g2
Ntp152
Rp153
(dp154
g46
g47
sg48
F0.0
sg49
g50
sg51
I34
sg52
F4.924273
sbsI35
g0
(g42
g2
Ntp155
Rp156
(dp157
g46
g47
sg48
F0.0
sg49
g50
sg51
I35
sg52
F4.924273
sbsI36
g0
(g42
g2
Ntp158
Rp159
(dp160
g46
S'sigmoid'
p161
sg48
F0.0
sg49
S'OUTPUT'
p162
sg51
I36
sg52
F4.896468352059923
sbsI37
g0
(g42
g2
Ntp163
Rp164
(dp165
g46
g161
sg48
F0.0
sg49
g162
sg51
I37
sg52
F4.924273
sbsI38
g0
(g42
g2
Ntp166
Rp167
(dp168
g46
g161
sg48
F-1.0965646618707101
sg49
g162
sg51
I38
sg52
F4.935566172043359
sbsI39
g0
(g42
g2
Ntp169
Rp170
(dp171
g46
g161
sg48
F-5.0
sg49
g162
sg51
I39
sg52
F4.924273
sbsI40
g0
(g42
g2
Ntp172
Rp173
(dp174
g46
g161
sg48
F0.0
sg49
S'HIDDEN'
p175
sg51
I40
sg52
F4.909425176125112
sbsI41
g0
(g42
g2
Ntp176
Rp177
(dp178
g46
g161
sg48
F0.0
sg49
g175
sg51
I41
sg52
F4.924273
sbsI42
g0
(g42
g2
Ntp179
Rp180
(dp181
g46
g161
sg48
F0.0
sg49
g175
sg51
I42
sg52
F4.534755880952462
sbsI43
g0
(g42
g2
Ntp182
Rp183
(dp184
g46
g161
sg48
F0.0
sg49
g175
sg51
I43
sg52
F4.72478648435224
sbsI44
g0
(g42
g2
Ntp185
Rp186
(dp187
g46
g161
sg48
F0.0
sg49
g175
sg51
I44
sg52
F4.992078757601787
sbsI45
g0
(g42
g2
Ntp188
Rp189
(dp190
g46
g161
sg48
F-5.0
sg49
g175
sg51
I45
sg52
F4.924273
sbsI46
g0
(g42
g2
Ntp191
Rp192
(dp193
g46
g161
sg48
F-2.471566459676831
sg49
g175
sg51
I46
sg52
F4.889836491563626
sbsI47
g0
(g42
g2
Ntp194
Rp195
(dp196
g46
g161
sg48
F-1.261219640079625
sg49
g175
sg51
I47
sg52
F5.0
sbsI48
g0
(g42
g2
Ntp197
Rp198
(dp199
g46
g161
sg48
F-0.6644758494109961
sg49
g175
sg51
I48
sg52
F4.701724895993031
sbsI49
g0
(g42
g2
Ntp200
Rp201
(dp202
g46
g161
sg48
F2.0239997463225303
sg49
g175
sg51
I49
sg52
F4.924273
sbsI50
g0
(g42
g2
Ntp203
Rp204
(dp205
g46
g161
sg48
F0.0
sg49
g175
sg51
I50
sg52
F4.924273
sbsI51
g0
(g42
g2
Ntp206
Rp207
(dp208
g46
g161
sg48
F2.62686749356984
sg49
g175
sg51
I51
sg52
F4.924273
sbsI52
g0
(g42
g2
Ntp209
Rp210
(dp211
g46
g161
sg48
F2.805760143654611
sg49
g175
sg51
I52
sg52
F4.704648331723002
sbsI53
g0
(g42
g2
Ntp212
Rp213
(dp214
g46
g161
sg48
F0.0
sg49
g175
sg51
I53
sg52
F4.9142057367220815
sbsI54
g0
(g42
g2
Ntp215
Rp216
(dp217
g46
g161
sg48
F-0.6062445052553253
sg49
g175
sg51
I54
sg52
F5.0
sbsI55
g0
(g42
g2
Ntp218
Rp219
(dp220
g46
g161
sg48
F0.0
sg49
g175
sg51
I55
sg52
F4.971394029199894
sbsI56
g0
(g42
g2
Ntp221
Rp222
(dp223
g46
g161
sg48
F0.1701360236844346
sg49
g175
sg51
I56
sg52
F5.0
sbsI57
g0
(g42
g2
Ntp224
Rp225
(dp226
g46
g161
sg48
F0.0
sg49
g175
sg51
I57
sg52
F4.924273
sbsI58
g0
(g42
g2
Ntp227
Rp228
(dp229
g46
g161
sg48
F-1.7709602320915696
sg49
g175
sg51
I58
sg52
F4.924366958546553
sbsI59
g0
(g42
g2
Ntp230
Rp231
(dp232
g46
g161
sg48
F-2.9592623767786144
sg49
g175
sg51
I59
sg52
F4.924273
sbsI60
g0
(g42
g2
Ntp233
Rp234
(dp235
g46
g161
sg48
F0.0
sg49
g175
sg51
I60
sg52
F4.924273
sbsI61
g0
(g42
g2
Ntp236
Rp237
(dp238
g46
g161
sg48
F-2.5160468735902626
sg49
g175
sg51
I61
sg52
F4.994521134313972
sbsI62
g0
(g42
g2
Ntp239
Rp240
(dp241
g46
g161
sg48
F0.0
sg49
g175
sg51
I62
sg52
F4.924273
sbsI63
g0
(g42
g2
Ntp242
Rp243
(dp244
g46
g161
sg48
F0.2960176161255293
sg49
g175
sg51
I63
sg52
F4.962248944587418
sbsI64
g0
(g42
g2
Ntp245
Rp246
(dp247
g46
g161
sg48
F-1.2087121972111035
sg49
g175
sg51
I64
sg52
F4.914915792484898
sbsI65
g0
(g42
g2
Ntp248
Rp249
(dp250
g46
g161
sg48
F0.0
sg49
g175
sg51
I65
sg52
F4.962296833047556
sbsI66
g0
(g42
g2
Ntp251
Rp252
(dp253
g46
g161
sg48
F0.0
sg49
g175
sg51
I66
sg52
F4.998939002387608
sbsI67
g0
(g42
g2
Ntp254
Rp255
(dp256
g46
g161
sg48
F0.0
sg49
g175
sg51
I67
sg52
F5.0
sbsI68
g0
(g42
g2
Ntp257
Rp258
(dp259
g46
g161
sg48
F0.0
sg49
g175
sg51
I68
sg52
F4.942151260726628
sbsI69
g0
(g42
g2
Ntp260
Rp261
(dp262
g46
g161
sg48
F0.0
sg49
g175
sg51
I69
sg52
F4.924273
sbsI70
g0
(g42
g2
Ntp263
Rp264
(dp265
g46
g161
sg48
F0.0
sg49
g175
sg51
I70
sg52
F4.944800336504313
sbsI71
g0
(g42
g2
Ntp266
Rp267
(dp268
g46
g161
sg48
F-0.9434658960938174
sg49
g175
sg51
I71
sg52
F4.913896500045452
sbsI72
g0
(g42
g2
Ntp269
Rp270
(dp271
g46
g161
sg48
F0.0
sg49
g175
sg51
I72
sg52
F4.924273
sbsI73
g0
(g42
g2
Ntp272
Rp273
(dp274
g46
g161
sg48
F0.0
sg49
g175
sg51
I73
sg52
F4.993606798688293
sbsI74
g0
(g42
g2
Ntp275
Rp276
(dp277
g46
g161
sg48
F1.3304589662002748
sg49
g175
sg51
I74
sg52
F4.872408007444405
sbsI75
g0
(g42
g2
Ntp278
Rp279
(dp280
g46
g161
sg48
F-1.1846013824623423
sg49
g175
sg51
I75
sg52
F4.863128251800601
sbsI76
g0
(g42
g2
Ntp281
Rp282
(dp283
g46
g161
sg48
F3.799950103593633
sg49
g175
sg51
I76
sg52
F4.812725028611356
sbsI77
g0
(g42
g2
Ntp284
Rp285
(dp286
g46
g161
sg48
F0.0
sg49
g175
sg51
I77
sg52
F4.924273
sbsI78
g0
(g42
g2
Ntp287
Rp288
(dp289
g46
g161
sg48
F-0.7848931960022532
sg49
g175
sg51
I78
sg52
F4.924273
sbsI79
g0
(g42
g2
Ntp290
Rp291
(dp292
g46
g161
sg48
F3.236413017830593
sg49
g175
sg51
I79
sg52
F5.0
sbssS'node_order'
p293
(lp294
I40
aI41
aI42
aI43
aI44
aI45
aI46
aI47
aI48
aI49
aI50
aI51
aI52
aI53
aI54
aI55
aI56
aI57
aI58
aI59
aI60
aI61
aI62
aI63
aI64
aI65
aI66
aI67
aI68
aI69
aI70
aI71
aI72
aI73
aI74
aI75
aI76
aI77
aI78
aI79
asS'num_outputs'
p295
I4
sS'fitness'
p296
cnumpy.core.multiarray
scalar
p297
(cnumpy
dtype
p298
(S'f8'
p299
I0
I1
tp300
Rp301
(I3
S'<'
p302
NNNI-1
I-1
I0
tp303
bS'd\x9f]\xd3\xbf\xebM\xc0'
p304
tp305
Rp306
sS'parent2_id'
p307
I1337
sS'config'
p308
g0
(cneat.config
Config
p309
g2
Ntp310
Rp311
(dp312
S'weight_stdev'
p313
F1.0
sS'disjoint_coefficient'
p314
F1.0
sS'prob_delete_node'
p315
F0.03
sS'initial_connection'
p316
S'unconnected'
p317
sS'stagnation_type'
p318
cneat.stagnation
DefaultStagnation
p319
sS'weight_mutation_power'
p320
F0.82
sS'excess_coefficient'
p321
F1.0
sS'compatibility_threshold'
p322
F3.0
sS'pop_size'
p323
I150
sS'weight_coefficient'
p324
F0.4
sS'feedforward'
p325
I01
sS'prob_add_node'
p326
F0.08
sS'genotype'
p327
g1
sS'type_config'
p328
(dp329
S'DefaultStagnation'
p330
(lp331
(S'species_fitness_func'
p332
S'mean'
p333
tp334
a(S'max_stagnation'
p335
S'15'
p336
tp337
asS'DefaultReproduction'
p338
(lp339
(S'elitism'
p340
S'1'
p341
tp342
a(S'survival_threshold'
p343
S'0.2'
p344
tp345
assS'prob_mutate_activation'
p346
F0.0
sS'conn_gene_type'
p347
g10
sS'connection_fraction'
p348
NsS'activation_functions'
p349
(lp350
g161
asS'response_mutation_power'
p351
F0.1
sS'prob_add_conn'
p352
F0.98
sS'checkpoint_time_interval'
p353
NsS'checkpoint_gen_interval'
p354
NsS'prob_mutate_bias'
p355
F0.05
sS'reproduction_type'
p356
cneat.reproduction
DefaultReproduction
p357
sS'node_gene_type'
p358
g42
sS'output_nodes'
p359
I4
sS'input_nodes'
p360
I36
sS'prob_replace_weight'
p361
F0.025
sS'registry'
p362
(dp363
S'DefaultStagnation'
p364
g319
sS'DefaultReproduction'
p365
g357
ssS'hidden_nodes'
p366
I40
sS'report'
p367
I01
sS'prob_mutate_response'
p368
F0.1
sS'collect_statistics'
p369
I01
sS'max_weight'
p370
F5.0
sS'min_weight'
p371
F-5.0
sS'prob_toggle_link'
p372
F0.01
sS'save_best'
p373
I00
sS'max_fitness_threshold'
p374
F0.0
sS'bias_mutation_power'
p375
F2.093
sS'prob_delete_conn'
p376
F0.15
sS'reset_on_extinction'
p377
I01
sS'prob_mutate_weight'
p378
F0.45
sbsg51
I1472
sb.