ccopy_reg
_reconstructor
p0
(cneat.genome
FFGenome
p1
c__builtin__
object
p2
Ntp3
Rp4
(dp5
S'species_id'
p6
I1
sS'conn_genes'
p7
(dp8
(I19
I63
tp9
g0
(cneat.genes
ConnectionGene
p10
g2
Ntp11
Rp12
(dp13
S'weight'
p14
F4.2267834598371286
sS'enabled'
p15
I01
sS'out_node_id'
p16
I63
sS'in_node_id'
p17
I19
sbs(I22
I57
tp18
g0
(g10
g2
Ntp19
Rp20
(dp21
g14
F3.261230372986917
sg15
I01
sg16
I57
sg17
I22
sbs(I9
I59
tp22
g0
(g10
g2
Ntp23
Rp24
(dp25
g14
F-2.1117913222993634
sg15
I01
sg16
I59
sg17
I9
sbs(I25
I62
tp26
g0
(g10
g2
Ntp27
Rp28
(dp29
g14
F-5.0
sg15
I00
sg16
I62
sg17
I25
sbs(I27
I46
tp30
g0
(g10
g2
Ntp31
Rp32
(dp33
g14
F-2.285746161529794
sg15
I01
sg16
I46
sg17
I27
sbs(I32
I54
tp34
g0
(g10
g2
Ntp35
Rp36
(dp37
g14
F0.5170607174531122
sg15
I01
sg16
I54
sg17
I32
sbs(I13
I46
tp38
g0
(g10
g2
Ntp39
Rp40
(dp41
g14
F-2.834566242757707
sg15
I00
sg16
I46
sg17
I13
sbs(I31
I37
tp42
g0
(g10
g2
Ntp43
Rp44
(dp45
g14
F4.238472720714272
sg15
I01
sg16
I37
sg17
I31
sbs(I16
I61
tp46
g0
(g10
g2
Ntp47
Rp48
(dp49
g14
F-5.0
sg15
I00
sg16
I61
sg17
I16
sbs(I23
I41
tp50
g0
(g10
g2
Ntp51
Rp52
(dp53
g14
F-2.256489576521341
sg15
I01
sg16
I41
sg17
I23
sbs(I4
I45
tp54
g0
(g10
g2
Ntp55
Rp56
(dp57
g14
F0.36436703479209753
sg15
I00
sg16
I45
sg17
I4
sbs(I41
I61
tp58
g0
(g10
g2
Ntp59
Rp60
(dp61
g14
F0.3647833568193355
sg15
I01
sg16
I61
sg17
I41
sbs(I50
I38
tp62
g0
(g10
g2
Ntp63
Rp64
(dp65
g14
F1.6097065129427053
sg15
I00
sg16
I38
sg17
I50
sbs(I8
I61
tp66
g0
(g10
g2
Ntp67
Rp68
(dp69
g14
F-4.2000550062217945
sg15
I00
sg16
I61
sg17
I8
sbs(I31
I58
tp70
g0
(g10
g2
Ntp71
Rp72
(dp73
g14
F1.3974167093844392
sg15
I01
sg16
I58
sg17
I31
sbs(I60
I58
tp74
g0
(g10
g2
Ntp75
Rp76
(dp77
g14
F-1.0812944498908261
sg15
I00
sg16
I58
sg17
I60
sbs(I41
I50
tp78
g0
(g10
g2
Ntp79
Rp80
(dp81
g14
F2.29969818898887
sg15
I00
sg16
I50
sg17
I41
sbs(I16
I50
tp82
g0
(g10
g2
Ntp83
Rp84
(dp85
g14
F0.9629715910064366
sg15
I01
sg16
I50
sg17
I16
sbs(I22
I62
tp86
g0
(g10
g2
Ntp87
Rp88
(dp89
g14
F2.3262216893643037
sg15
I01
sg16
I62
sg17
I22
sbs(I61
I38
tp90
g0
(g10
g2
Ntp91
Rp92
(dp93
g14
F0.2635949192746472
sg15
I00
sg16
I38
sg17
I61
sbs(I4
I42
tp94
g0
(g10
g2
Ntp95
Rp96
(dp97
g14
F-3.366661946217026
sg15
I01
sg16
I42
sg17
I4
sbs(I28
I63
tp98
g0
(g10
g2
Ntp99
Rp100
(dp101
g14
F2.4194808536844894
sg15
I01
sg16
I63
sg17
I28
sbs(I10
I43
tp102
g0
(g10
g2
Ntp103
Rp104
(dp105
g14
F2.2769642279958964
sg15
I01
sg16
I43
sg17
I10
sbs(I14
I37
tp106
g0
(g10
g2
Ntp107
Rp108
(dp109
g14
F2.4337474708218187
sg15
I01
sg16
I37
sg17
I14
sbs(I53
I64
tp110
g0
(g10
g2
Ntp111
Rp112
(dp113
g14
F1.771515022936666
sg15
I01
sg16
I64
sg17
I53
sbs(I51
I61
tp114
g0
(g10
g2
Ntp115
Rp116
(dp117
g14
F1.3983301677274782
sg15
I01
sg16
I61
sg17
I51
sbs(I2
I63
tp118
g0
(g10
g2
Ntp119
Rp120
(dp121
g14
F-2.0988002796889744
sg15
I01
sg16
I63
sg17
I2
sbs(I7
I40
tp122
g0
(g10
g2
Ntp123
Rp124
(dp125
g14
F1.0
sg15
I01
sg16
I40
sg17
I7
sbs(I11
I37
tp126
g0
(g10
g2
Ntp127
Rp128
(dp129
g14
F-2.3611491439503194
sg15
I01
sg16
I37
sg17
I11
sbs(I27
I51
tp130
g0
(g10
g2
Ntp131
Rp132
(dp133
g14
F-1.926236616166263
sg15
I01
sg16
I51
sg17
I27
sbs(I43
I54
tp134
g0
(g10
g2
Ntp135
Rp136
(dp137
g14
F-0.15077929496906925
sg15
I01
sg16
I54
sg17
I43
sbs(I25
I39
tp138
g0
(g10
g2
Ntp139
Rp140
(dp141
g14
F2.3260393658616785
sg15
I00
sg16
I39
sg17
I25
sbs(I47
I60
tp142
g0
(g10
g2
Ntp143
Rp144
(dp145
g14
F1.8141693375428305
sg15
I00
sg16
I60
sg17
I47
sbs(I40
I61
tp146
g0
(g10
g2
Ntp147
Rp148
(dp149
g14
F2.007353980457351
sg15
I01
sg16
I61
sg17
I40
sbs(I3
I51
tp150
g0
(g10
g2
Ntp151
Rp152
(dp153
g14
F0.31487237403081925
sg15
I01
sg16
I51
sg17
I3
sbs(I27
I63
tp154
g0
(g10
g2
Ntp155
Rp156
(dp157
g14
F-2.868960922645792
sg15
I01
sg16
I63
sg17
I27
sbs(I15
I46
tp158
g0
(g10
g2
Ntp159
Rp160
(dp161
g14
F-1.0105688011956266
sg15
I00
sg16
I46
sg17
I15
sbs(I44
I60
tp162
g0
(g10
g2
Ntp163
Rp164
(dp165
g14
F-3.6712830097510007
sg15
I01
sg16
I60
sg17
I44
sbs(I62
I39
tp166
g0
(g10
g2
Ntp167
Rp168
(dp169
g14
F-0.7419293493514227
sg15
I01
sg16
I39
sg17
I62
sbs(I41
I49
tp170
g0
(g10
g2
Ntp171
Rp172
(dp173
g14
F1.2525562765582672
sg15
I00
sg16
I49
sg17
I41
sbs(I34
I39
tp174
g0
(g10
g2
Ntp175
Rp176
(dp177
g14
F0.2328775953205724
sg15
I01
sg16
I39
sg17
I34
sbs(I63
I38
tp178
g0
(g10
g2
Ntp179
Rp180
(dp181
g14
F-5.0
sg15
I01
sg16
I38
sg17
I63
sbs(I1
I54
tp182
g0
(g10
g2
Ntp183
Rp184
(dp185
g14
F2.02723852221059
sg15
I01
sg16
I54
sg17
I1
sbs(I41
I44
tp186
g0
(g10
g2
Ntp187
Rp188
(dp189
g14
F-3.35401031580642
sg15
I00
sg16
I44
sg17
I41
sbs(I23
I49
tp190
g0
(g10
g2
Ntp191
Rp192
(dp193
g14
F-0.9724356048572808
sg15
I00
sg16
I49
sg17
I23
sbs(I22
I59
tp194
g0
(g10
g2
Ntp195
Rp196
(dp197
g14
F-0.8910028212894736
sg15
I00
sg16
I59
sg17
I22
sbs(I49
I64
tp198
g0
(g10
g2
Ntp199
Rp200
(dp201
g14
F-5.0
sg15
I01
sg16
I64
sg17
I49
sbs(I25
I38
tp202
g0
(g10
g2
Ntp203
Rp204
(dp205
g14
F-0.9546365565488828
sg15
I00
sg16
I38
sg17
I25
sbs(I33
I42
tp206
g0
(g10
g2
Ntp207
Rp208
(dp209
g14
F2.8717951795374836
sg15
I00
sg16
I42
sg17
I33
sbs(I53
I36
tp210
g0
(g10
g2
Ntp211
Rp212
(dp213
g14
F4.525778253157594
sg15
I00
sg16
I36
sg17
I53
sbs(I21
I63
tp214
g0
(g10
g2
Ntp215
Rp216
(dp217
g14
F-2.8743356809886436
sg15
I01
sg16
I63
sg17
I21
sbs(I22
I39
tp218
g0
(g10
g2
Ntp219
Rp220
(dp221
g14
F0.40632790706957145
sg15
I00
sg16
I39
sg17
I22
sbs(I11
I59
tp222
g0
(g10
g2
Ntp223
Rp224
(dp225
g14
F0.4874309240784113
sg15
I00
sg16
I59
sg17
I11
sbs(I29
I56
tp226
g0
(g10
g2
Ntp227
Rp228
(dp229
g14
F5.0
sg15
I01
sg16
I56
sg17
I29
sbs(I45
I51
tp230
g0
(g10
g2
Ntp231
Rp232
(dp233
g14
F2.9107483874363242
sg15
I00
sg16
I51
sg17
I45
sbs(I17
I58
tp234
g0
(g10
g2
Ntp235
Rp236
(dp237
g14
F0.5949104803295825
sg15
I00
sg16
I58
sg17
I17
sbs(I33
I61
tp238
g0
(g10
g2
Ntp239
Rp240
(dp241
g14
F1.6654752003079056
sg15
I01
sg16
I61
sg17
I33
sbs(I57
I39
tp242
g0
(g10
g2
Ntp243
Rp244
(dp245
g14
F-1.0183073170335486
sg15
I00
sg16
I39
sg17
I57
sbs(I3
I36
tp246
g0
(g10
g2
Ntp247
Rp248
(dp249
g14
F3.3471094780188357
sg15
I00
sg16
I36
sg17
I3
sbs(I64
I60
tp250
g0
(g10
g2
Ntp251
Rp252
(dp253
g14
F-3.331740946619112
sg15
I00
sg16
I60
sg17
I64
sbs(I15
I59
tp254
g0
(g10
g2
Ntp255
Rp256
(dp257
g14
F0.11541026185375469
sg15
I00
sg16
I59
sg17
I15
sbs(I45
I55
tp258
g0
(g10
g2
Ntp259
Rp260
(dp261
g14
F0.28205487475599056
sg15
I00
sg16
I55
sg17
I45
sbs(I43
I38
tp262
g0
(g10
g2
Ntp263
Rp264
(dp265
g14
F-1.4043803616139978
sg15
I00
sg16
I38
sg17
I43
sbs(I9
I52
tp266
g0
(g10
g2
Ntp267
Rp268
(dp269
g14
F-0.05092858113205789
sg15
I01
sg16
I52
sg17
I9
sbs(I24
I49
tp270
g0
(g10
g2
Ntp271
Rp272
(dp273
g14
F-2.3302544427151717
sg15
I01
sg16
I49
sg17
I24
sbs(I3
I43
tp274
g0
(g10
g2
Ntp275
Rp276
(dp277
g14
F3.0675379257069215
sg15
I00
sg16
I43
sg17
I3
sbs(I54
I37
tp278
g0
(g10
g2
Ntp279
Rp280
(dp281
g14
F0.7148276527250915
sg15
I00
sg16
I37
sg17
I54
sbs(I19
I56
tp282
g0
(g10
g2
Ntp283
Rp284
(dp285
g14
F-0.695920783900931
sg15
I00
sg16
I56
sg17
I19
sbs(I22
I36
tp286
g0
(g10
g2
Ntp287
Rp288
(dp289
g14
F-0.4561645522917428
sg15
I01
sg16
I36
sg17
I22
sbs(I13
I60
tp290
g0
(g10
g2
Ntp291
Rp292
(dp293
g14
F2.594804716607118
sg15
I01
sg16
I60
sg17
I13
sbs(I44
I36
tp294
g0
(g10
g2
Ntp295
Rp296
(dp297
g14
F2.059665921249531
sg15
I00
sg16
I36
sg17
I44
sbs(I0
I64
tp298
g0
(g10
g2
Ntp299
Rp300
(dp301
g14
F-0.8891235802791049
sg15
I01
sg16
I64
sg17
I0
sbs(I27
I43
tp302
g0
(g10
g2
Ntp303
Rp304
(dp305
g14
F3.314971388914144
sg15
I01
sg16
I43
sg17
I27
sbs(I20
I51
tp306
g0
(g10
g2
Ntp307
Rp308
(dp309
g14
F-3.2891858857605385
sg15
I01
sg16
I51
sg17
I20
sbs(I20
I37
tp310
g0
(g10
g2
Ntp311
Rp312
(dp313
g14
F4.0675206506507955
sg15
I01
sg16
I37
sg17
I20
sbs(I33
I38
tp314
g0
(g10
g2
Ntp315
Rp316
(dp317
g14
F-0.8461588494105221
sg15
I00
sg16
I38
sg17
I33
sbs(I7
I61
tp318
g0
(g10
g2
Ntp319
Rp320
(dp321
g14
F2.7653316511156656
sg15
I00
sg16
I61
sg17
I7
sbs(I17
I57
tp322
g0
(g10
g2
Ntp323
Rp324
(dp325
g14
F-1.7458177031779851
sg15
I01
sg16
I57
sg17
I17
sbs(I28
I50
tp326
g0
(g10
g2
Ntp327
Rp328
(dp329
g14
F3.962299319444186
sg15
I01
sg16
I50
sg17
I28
sbs(I24
I63
tp330
g0
(g10
g2
Ntp331
Rp332
(dp333
g14
F-3.0641260084561655
sg15
I01
sg16
I63
sg17
I24
sbssS'parent1_id'
p334
I30262
sS'num_inputs'
p335
I36
sS'node_genes'
p336
(dp337
I0
g0
(cneat.genes
NodeGene
p338
g2
Ntp339
Rp340
(dp341
S'activation_type'
p342
S'sigmoid'
p343
sS'bias'
p344
F0.0
sS'type'
p345
S'INPUT'
p346
sS'ID'
p347
I0
sS'response'
p348
F4.924273
sbsI1
g0
(g338
g2
Ntp349
Rp350
(dp351
g342
g343
sg344
F0.0
sg345
g346
sg347
I1
sg348
F4.924273
sbsI2
g0
(g338
g2
Ntp352
Rp353
(dp354
g342
g343
sg344
F0.0
sg345
g346
sg347
I2
sg348
F4.924273
sbsI3
g0
(g338
g2
Ntp355
Rp356
(dp357
g342
g343
sg344
F0.0
sg345
g346
sg347
I3
sg348
F4.924273
sbsI4
g0
(g338
g2
Ntp358
Rp359
(dp360
g342
g343
sg344
F0.0
sg345
g346
sg347
I4
sg348
F4.924273
sbsI5
g0
(g338
g2
Ntp361
Rp362
(dp363
g342
g343
sg344
F0.0
sg345
g346
sg347
I5
sg348
F4.924273
sbsI6
g0
(g338
g2
Ntp364
Rp365
(dp366
g342
g343
sg344
F0.0
sg345
g346
sg347
I6
sg348
F4.924273
sbsI7
g0
(g338
g2
Ntp367
Rp368
(dp369
g342
g343
sg344
F0.0
sg345
g346
sg347
I7
sg348
F4.924273
sbsI8
g0
(g338
g2
Ntp370
Rp371
(dp372
g342
g343
sg344
F0.0
sg345
g346
sg347
I8
sg348
F4.924273
sbsI9
g0
(g338
g2
Ntp373
Rp374
(dp375
g342
g343
sg344
F0.0
sg345
g346
sg347
I9
sg348
F4.924273
sbsI10
g0
(g338
g2
Ntp376
Rp377
(dp378
g342
g343
sg344
F0.0
sg345
g346
sg347
I10
sg348
F4.924273
sbsI11
g0
(g338
g2
Ntp379
Rp380
(dp381
g342
g343
sg344
F0.0
sg345
g346
sg347
I11
sg348
F4.924273
sbsI12
g0
(g338
g2
Ntp382
Rp383
(dp384
g342
g343
sg344
F0.0
sg345
g346
sg347
I12
sg348
F4.924273
sbsI13
g0
(g338
g2
Ntp385
Rp386
(dp387
g342
g343
sg344
F0.0
sg345
g346
sg347
I13
sg348
F4.924273
sbsI14
g0
(g338
g2
Ntp388
Rp389
(dp390
g342
g343
sg344
F0.0
sg345
g346
sg347
I14
sg348
F4.924273
sbsI15
g0
(g338
g2
Ntp391
Rp392
(dp393
g342
g343
sg344
F0.0
sg345
g346
sg347
I15
sg348
F4.924273
sbsI16
g0
(g338
g2
Ntp394
Rp395
(dp396
g342
g343
sg344
F0.0
sg345
g346
sg347
I16
sg348
F4.924273
sbsI17
g0
(g338
g2
Ntp397
Rp398
(dp399
g342
g343
sg344
F0.0
sg345
g346
sg347
I17
sg348
F4.924273
sbsI18
g0
(g338
g2
Ntp400
Rp401
(dp402
g342
g343
sg344
F0.0
sg345
g346
sg347
I18
sg348
F4.924273
sbsI19
g0
(g338
g2
Ntp403
Rp404
(dp405
g342
g343
sg344
F0.0
sg345
g346
sg347
I19
sg348
F4.924273
sbsI20
g0
(g338
g2
Ntp406
Rp407
(dp408
g342
g343
sg344
F0.0
sg345
g346
sg347
I20
sg348
F4.924273
sbsI21
g0
(g338
g2
Ntp409
Rp410
(dp411
g342
g343
sg344
F0.0
sg345
g346
sg347
I21
sg348
F4.924273
sbsI22
g0
(g338
g2
Ntp412
Rp413
(dp414
g342
g343
sg344
F0.0
sg345
g346
sg347
I22
sg348
F4.924273
sbsI23
g0
(g338
g2
Ntp415
Rp416
(dp417
g342
g343
sg344
F0.0
sg345
g346
sg347
I23
sg348
F4.924273
sbsI24
g0
(g338
g2
Ntp418
Rp419
(dp420
g342
g343
sg344
F0.0
sg345
g346
sg347
I24
sg348
F4.924273
sbsI25
g0
(g338
g2
Ntp421
Rp422
(dp423
g342
g343
sg344
F0.0
sg345
g346
sg347
I25
sg348
F4.924273
sbsI26
g0
(g338
g2
Ntp424
Rp425
(dp426
g342
g343
sg344
F0.0
sg345
g346
sg347
I26
sg348
F4.924273
sbsI27
g0
(g338
g2
Ntp427
Rp428
(dp429
g342
g343
sg344
F0.0
sg345
g346
sg347
I27
sg348
F4.924273
sbsI28
g0
(g338
g2
Ntp430
Rp431
(dp432
g342
g343
sg344
F0.0
sg345
g346
sg347
I28
sg348
F4.924273
sbsI29
g0
(g338
g2
Ntp433
Rp434
(dp435
g342
g343
sg344
F0.0
sg345
g346
sg347
I29
sg348
F4.924273
sbsI30
g0
(g338
g2
Ntp436
Rp437
(dp438
g342
g343
sg344
F0.0
sg345
g346
sg347
I30
sg348
F4.924273
sbsI31
g0
(g338
g2
Ntp439
Rp440
(dp441
g342
g343
sg344
F0.0
sg345
g346
sg347
I31
sg348
F4.924273
sbsI32
g0
(g338
g2
Ntp442
Rp443
(dp444
g342
g343
sg344
F0.0
sg345
g346
sg347
I32
sg348
F4.924273
sbsI33
g0
(g338
g2
Ntp445
Rp446
(dp447
g342
g343
sg344
F0.0
sg345
g346
sg347
I33
sg348
F4.924273
sbsI34
g0
(g338
g2
Ntp448
Rp449
(dp450
g342
g343
sg344
F0.0
sg345
g346
sg347
I34
sg348
F4.924273
sbsI35
g0
(g338
g2
Ntp451
Rp452
(dp453
g342
g343
sg344
F0.0
sg345
g346
sg347
I35
sg348
F4.924273
sbsI36
g0
(g338
g2
Ntp454
Rp455
(dp456
g342
S'sigmoid'
p457
sg344
F0.04159896931386953
sg345
S'OUTPUT'
p458
sg347
I36
sg348
F4.5406336434869505
sbsI37
g0
(g338
g2
Ntp459
Rp460
(dp461
g342
g457
sg344
F1.6736717910738945
sg345
g458
sg347
I37
sg348
F4.435598649832543
sbsI38
g0
(g338
g2
Ntp462
Rp463
(dp464
g342
g457
sg344
F0.42359523847766406
sg345
g458
sg347
I38
sg348
F4.822577502573883
sbsI39
g0
(g338
g2
Ntp465
Rp466
(dp467
g342
g457
sg344
F1.5056765702390367
sg345
g458
sg347
I39
sg348
F5.0
sbsI40
g0
(g338
g2
Ntp468
Rp469
(dp470
g342
g457
sg344
F0.0
sg345
S'HIDDEN'
p471
sg347
I40
sg348
F4.924273
sbsI41
g0
(g338
g2
Ntp472
Rp473
(dp474
g342
g457
sg344
F-2.0302980815962552
sg345
g471
sg347
I41
sg348
F4.50590738748884
sbsI42
g0
(g338
g2
Ntp475
Rp476
(dp477
g342
g457
sg344
F3.5379121260829773
sg345
g471
sg347
I42
sg348
F5.0
sbsI43
g0
(g338
g2
Ntp478
Rp479
(dp480
g342
g457
sg344
F2.6577366596146557
sg345
g471
sg347
I43
sg348
F4.364564176663743
sbsI44
g0
(g338
g2
Ntp481
Rp482
(dp483
g342
g457
sg344
F5.0
sg345
g471
sg347
I44
sg348
F4.844828007512793
sbsI45
g0
(g338
g2
Ntp484
Rp485
(dp486
g342
g457
sg344
F4.28998881308791
sg345
g471
sg347
I45
sg348
F4.924273
sbsI46
g0
(g338
g2
Ntp487
Rp488
(dp489
g342
g457
sg344
F-0.873303533545801
sg345
g471
sg347
I46
sg348
F4.902003826364264
sbsI47
g0
(g338
g2
Ntp490
Rp491
(dp492
g342
g457
sg344
F5.0
sg345
g471
sg347
I47
sg348
F4.918582731878558
sbsI49
g0
(g338
g2
Ntp493
Rp494
(dp495
g342
g457
sg344
F-2.889886825631804
sg345
g471
sg347
I49
sg348
F4.465695317560782
sbsI50
g0
(g338
g2
Ntp496
Rp497
(dp498
g342
g457
sg344
F-5.0
sg345
g471
sg347
I50
sg348
F4.772360356712293
sbsI51
g0
(g338
g2
Ntp499
Rp500
(dp501
g342
g457
sg344
F0.5729706583897449
sg345
g471
sg347
I51
sg348
F4.844220019291451
sbsI52
g0
(g338
g2
Ntp502
Rp503
(dp504
g342
g457
sg344
F-5.0
sg345
g471
sg347
I52
sg348
F4.85130061391441
sbsI53
g0
(g338
g2
Ntp505
Rp506
(dp507
g342
g457
sg344
F5.0
sg345
g471
sg347
I53
sg348
F4.7947700843221375
sbsI54
g0
(g338
g2
Ntp508
Rp509
(dp510
g342
g457
sg344
F5.0
sg345
g471
sg347
I54
sg348
F4.478066403483873
sbsI55
g0
(g338
g2
Ntp511
Rp512
(dp513
g342
g457
sg344
F-4.489419946654772
sg345
g471
sg347
I55
sg348
F4.995142927616568
sbsI56
g0
(g338
g2
Ntp514
Rp515
(dp516
g342
g457
sg344
F5.0
sg345
g471
sg347
I56
sg348
F4.860371063425587
sbsI57
g0
(g338
g2
Ntp517
Rp518
(dp519
g342
g457
sg344
F-0.21653519040411773
sg345
g471
sg347
I57
sg348
F5.0
sbsI58
g0
(g338
g2
Ntp520
Rp521
(dp522
g342
g457
sg344
F-5.0
sg345
g471
sg347
I58
sg348
F4.366537072764364
sbsI59
g0
(g338
g2
Ntp523
Rp524
(dp525
g342
g457
sg344
F-4.422213739894881
sg345
g471
sg347
I59
sg348
F4.440621075706558
sbsI60
g0
(g338
g2
Ntp526
Rp527
(dp528
g342
g457
sg344
F-1.2164582149023784
sg345
g471
sg347
I60
sg348
F4.902766559230564
sbsI61
g0
(g338
g2
Ntp529
Rp530
(dp531
g342
g457
sg344
F2.960768779437447
sg345
g471
sg347
I61
sg348
F4.576449212233708
sbsI62
g0
(g338
g2
Ntp532
Rp533
(dp534
g342
g457
sg344
F3.3724201894318453
sg345
g471
sg347
I62
sg348
F4.827518869128195
sbsI63
g0
(g338
g2
Ntp535
Rp536
(dp537
g342
g457
sg344
F-5.0
sg345
g471
sg347
I63
sg348
F4.724745820104321
sbsI64
g0
(g338
g2
Ntp538
Rp539
(dp540
g342
g457
sg344
F-2.381140101080658
sg345
g471
sg347
I64
sg348
F4.378646212044858
sbssS'node_order'
p541
(lp542
I41
aI42
aI43
aI40
aI44
aI45
aI46
aI47
aI49
aI50
aI51
aI52
aI53
aI54
aI55
aI62
aI61
aI63
aI64
aI56
aI57
aI60
aI58
aI59
asS'num_outputs'
p543
I4
sS'fitness'
p544
cnumpy.core.multiarray
scalar
p545
(cnumpy
dtype
p546
(S'f8'
p547
I0
I1
tp548
Rp549
(I3
S'<'
p550
NNNI-1
I-1
I0
tp551
bS'<7\xd1\x13\xadM<\xc0'
p552
tp553
Rp554
sS'parent2_id'
p555
I29494
sS'config'
p556
g0
(cneat.config
Config
p557
g2
Ntp558
Rp559
(dp560
S'weight_stdev'
p561
F1.0
sS'disjoint_coefficient'
p562
F1.0
sS'prob_delete_node'
p563
F0.03
sS'initial_connection'
p564
S'unconnected'
p565
sS'stagnation_type'
p566
cneat.stagnation
DefaultStagnation
p567
sS'weight_mutation_power'
p568
F0.825
sS'excess_coefficient'
p569
F1.0
sS'compatibility_threshold'
p570
F3.0
sS'pop_size'
p571
I150
sS'weight_coefficient'
p572
F0.4
sS'feedforward'
p573
I01
sS'prob_add_node'
p574
F0.08
sS'genotype'
p575
g1
sS'type_config'
p576
(dp577
S'DefaultStagnation'
p578
(lp579
(S'species_fitness_func'
p580
S'mean'
p581
tp582
a(S'max_stagnation'
p583
S'15'
p584
tp585
asS'DefaultReproduction'
p586
(lp587
(S'elitism'
p588
S'1'
p589
tp590
a(S'survival_threshold'
p591
S'0.2'
p592
tp593
assS'prob_mutate_activation'
p594
F0.0
sS'conn_gene_type'
p595
g10
sS'connection_fraction'
p596
NsS'activation_functions'
p597
(lp598
g457
asS'response_mutation_power'
p599
F0.1
sS'prob_add_conn'
p600
F0.988
sS'checkpoint_time_interval'
p601
NsS'checkpoint_gen_interval'
p602
NsS'prob_mutate_bias'
p603
F0.05
sS'reproduction_type'
p604
cneat.reproduction
DefaultReproduction
p605
sS'node_gene_type'
p606
g338
sS'output_nodes'
p607
I4
sS'input_nodes'
p608
I36
sS'prob_replace_weight'
p609
F0.0245
sS'registry'
p610
(dp611
S'DefaultStagnation'
p612
g567
sS'DefaultReproduction'
p613
g605
ssS'hidden_nodes'
p614
I20
sS'report'
p615
I01
sS'prob_mutate_response'
p616
F0.1
sS'collect_statistics'
p617
I01
sS'max_weight'
p618
F5.0
sS'min_weight'
p619
F-5.0
sS'prob_toggle_link'
p620
F0.0138
sS'save_best'
p621
I00
sS'max_fitness_threshold'
p622
F0.95
sS'bias_mutation_power'
p623
F2.093
sS'prob_delete_conn'
p624
F0.14
sS'reset_on_extinction'
p625
I01
sS'prob_mutate_weight'
p626
F0.46
sbsg347
I30530
sb.